---
triple:          'x86_64-apple-darwin'
binary-path:     '/Users/ruchita/Desktop/rucdas/zomato-help-LLD/main'
relocations:
  - { offsetInCU: 0x2DE7, offset: 0x2DE7, size: 0x8, addend: 0x0, symName: __ZNSt3__124__put_character_sequenceB7v160006IcNS_11char_traitsIcEEEERNS_13basic_ostreamIT_T0_EES7_PKS4_m, symObjAddr: 0x6E0, symBinAddr: 0x100000E30, symSize: 0x1F0 }
  - { offsetInCU: 0x471E, offset: 0x471E, size: 0x8, addend: 0x0, symName: __ZNSt3__1lsB7v160006INS_11char_traitsIcEEEERNS_13basic_ostreamIcT_EES6_PKc, symObjAddr: 0x100, symBinAddr: 0x100000850, symSize: 0x40 }
  - { offsetInCU: 0x4764, offset: 0x4764, size: 0x8, addend: 0x0, symName: __ZNSt3__119__debug_db_insert_cB7v160006INS_12basic_stringIcNS_11char_traitsIcEENS_9allocatorIcEEEEEEvPT_, symObjAddr: 0x1F0, symBinAddr: 0x100000940, symSize: 0x10 }
  - { offsetInCU: 0x4795, offset: 0x4795, size: 0x8, addend: 0x0, symName: __ZNSt3__130__libcpp_is_constant_evaluatedB7v160006Ev, symObjAddr: 0x370, symBinAddr: 0x100000AC0, symSize: 0x10 }
  - { offsetInCU: 0x47B2, offset: 0x47B2, size: 0x8, addend: 0x0, symName: __ZNSt3__117__libcpp_allocateB7v160006Emm, symObjAddr: 0x650, symBinAddr: 0x100000DA0, symSize: 0x20 }
  - { offsetInCU: 0x47EF, offset: 0x47EF, size: 0x8, addend: 0x0, symName: __ZNSt3__121__libcpp_operator_newB7v160006IJmEEEPvDpT_, symObjAddr: 0x690, symBinAddr: 0x100000DE0, symSize: 0x20 }
  - { offsetInCU: 0x4828, offset: 0x4828, size: 0x8, addend: 0x0, symName: __ZNSt3__116__pad_and_outputB7v160006IcNS_11char_traitsIcEEEENS_19ostreambuf_iteratorIT_T0_EES6_PKS4_S8_S8_RNS_8ios_baseES4_, symObjAddr: 0x930, symBinAddr: 0x100001080, symSize: 0x220 }
  - { offsetInCU: 0x48F8, offset: 0x48F8, size: 0x8, addend: 0x0, symName: __ZNSt3__112__to_addressB7v160006IKcEEPT_S3_, symObjAddr: 0xD90, symBinAddr: 0x1000014E0, symSize: 0x10 }
  - { offsetInCU: 0x4960, offset: 0x4960, size: 0x8, addend: 0x0, symName: __ZNSt3__19use_facetB7v160006INS_5ctypeIcEEEERKT_RKNS_6localeE, symObjAddr: 0x1040, symBinAddr: 0x100001790, symSize: 0x30 }
  - { offsetInCU: 0x4E2F, offset: 0x4E2F, size: 0x8, addend: 0x0, symName: __ZNSt3__118__constexpr_strlenB7v160006EPKc, symObjAddr: 0x10D0, symBinAddr: 0x100001820, symSize: 0x1B }
  - { offsetInCU: 0x4E5C, offset: 0x4E5C, size: 0x8, addend: 0x0, symName: __ZSt28__throw_bad_array_new_lengthB7v160006v, symObjAddr: 0x610, symBinAddr: 0x100000D60, symSize: 0x40 }
  - { offsetInCU: 0x735C, offset: 0x735C, size: 0x8, addend: 0x0, symName: __ZN7AccountC2ENSt3__112basic_stringIcNS0_11char_traitsIcEENS0_9allocatorIcEEEES6_, symObjAddr: 0x0, symBinAddr: 0x100000750, symSize: 0xE0 }
  - { offsetInCU: 0x73A4, offset: 0x73A4, size: 0x8, addend: 0x0, symName: __ZNSt3__112basic_stringIcNS_11char_traitsIcEENS_9allocatorIcEEEC1B7v160006Ev, symObjAddr: 0xE0, symBinAddr: 0x100000830, symSize: 0x20 }
  - { offsetInCU: 0x73CC, offset: 0x73CC, size: 0x8, addend: 0x0, symName: __ZN7AccountC1ENSt3__112basic_stringIcNS0_11char_traitsIcEENS0_9allocatorIcEEEES6_, symObjAddr: 0x150, symBinAddr: 0x1000008A0, symSize: 0x30 }
  - { offsetInCU: 0x7414, offset: 0x7414, size: 0x8, addend: 0x0, symName: __ZNSt3__112basic_stringIcNS_11char_traitsIcEENS_9allocatorIcEEEC2B7v160006Ev, symObjAddr: 0x180, symBinAddr: 0x1000008D0, symSize: 0x40 }
  - { offsetInCU: 0x7441, offset: 0x7441, size: 0x8, addend: 0x0, symName: __ZNSt3__117__compressed_pairINS_12basic_stringIcNS_11char_traitsIcEENS_9allocatorIcEEE5__repES5_EC1B7v160006INS_18__default_init_tagESA_EEOT_OT0_, symObjAddr: 0x1C0, symBinAddr: 0x100000910, symSize: 0x30 }
  - { offsetInCU: 0x7497, offset: 0x7497, size: 0x8, addend: 0x0, symName: __ZNSt3__112basic_stringIcNS_11char_traitsIcEENS_9allocatorIcEEE14__default_initB7v160006Ev, symObjAddr: 0x200, symBinAddr: 0x100000950, symSize: 0xC0 }
  - { offsetInCU: 0x74E7, offset: 0x74E7, size: 0x8, addend: 0x0, symName: __ZNSt3__117__compressed_pairINS_12basic_stringIcNS_11char_traitsIcEENS_9allocatorIcEEE5__repES5_EC2B7v160006INS_18__default_init_tagESA_EEOT_OT0_, symObjAddr: 0x2C0, symBinAddr: 0x100000A10, symSize: 0x30 }
  - { offsetInCU: 0x753D, offset: 0x753D, size: 0x8, addend: 0x0, symName: __ZNSt3__122__compressed_pair_elemINS_12basic_stringIcNS_11char_traitsIcEENS_9allocatorIcEEE5__repELi0ELb0EEC2B7v160006ENS_18__default_init_tagE, symObjAddr: 0x2F0, symBinAddr: 0x100000A40, symSize: 0x10 }
  - { offsetInCU: 0x756F, offset: 0x756F, size: 0x8, addend: 0x0, symName: __ZNSt3__122__compressed_pair_elemINS_9allocatorIcEELi1ELb1EEC2B7v160006ENS_18__default_init_tagE, symObjAddr: 0x300, symBinAddr: 0x100000A50, symSize: 0x20 }
  - { offsetInCU: 0x75A1, offset: 0x75A1, size: 0x8, addend: 0x0, symName: __ZNSt3__19allocatorIcEC2B7v160006Ev, symObjAddr: 0x320, symBinAddr: 0x100000A70, symSize: 0x20 }
  - { offsetInCU: 0x75C9, offset: 0x75C9, size: 0x8, addend: 0x0, symName: __ZNSt3__116__non_trivial_ifILb1ENS_9allocatorIcEEEC2B7v160006Ev, symObjAddr: 0x340, symBinAddr: 0x100000A90, symSize: 0x10 }
  - { offsetInCU: 0x75F1, offset: 0x75F1, size: 0x8, addend: 0x0, symName: __ZNSt3__117__compressed_pairINS_12basic_stringIcNS_11char_traitsIcEENS_9allocatorIcEEE5__repES5_E5firstB7v160006Ev, symObjAddr: 0x350, symBinAddr: 0x100000AA0, symSize: 0x20 }
  - { offsetInCU: 0x7615, offset: 0x7615, size: 0x8, addend: 0x0, symName: __ZNSt3__112basic_stringIcNS_11char_traitsIcEENS_9allocatorIcEEE11__recommendB7v160006Em, symObjAddr: 0x380, symBinAddr: 0x100000AD0, symSize: 0x90 }
  - { offsetInCU: 0x7647, offset: 0x7647, size: 0x8, addend: 0x0, symName: __ZNSt3__116allocator_traitsINS_9allocatorIcEEE8allocateB7v160006ERS2_m, symObjAddr: 0x410, symBinAddr: 0x100000B60, symSize: 0x30 }
  - { offsetInCU: 0x7679, offset: 0x7679, size: 0x8, addend: 0x0, symName: __ZNSt3__112basic_stringIcNS_11char_traitsIcEENS_9allocatorIcEEE7__allocB7v160006Ev, symObjAddr: 0x440, symBinAddr: 0x100000B90, symSize: 0x20 }
  - { offsetInCU: 0x769D, offset: 0x769D, size: 0x8, addend: 0x0, symName: __ZNSt3__112basic_stringIcNS_11char_traitsIcEENS_9allocatorIcEEE16__begin_lifetimeB7v160006EPcm, symObjAddr: 0x460, symBinAddr: 0x100000BB0, symSize: 0x10 }
  - { offsetInCU: 0x76CF, offset: 0x76CF, size: 0x8, addend: 0x0, symName: __ZNSt3__112basic_stringIcNS_11char_traitsIcEENS_9allocatorIcEEE18__set_long_pointerB7v160006EPc, symObjAddr: 0x470, symBinAddr: 0x100000BC0, symSize: 0x30 }
  - { offsetInCU: 0x7702, offset: 0x7702, size: 0x8, addend: 0x0, symName: __ZNSt3__112basic_stringIcNS_11char_traitsIcEENS_9allocatorIcEEE14__set_long_capB7v160006Em, symObjAddr: 0x4A0, symBinAddr: 0x100000BF0, symSize: 0x70 }
  - { offsetInCU: 0x7735, offset: 0x7735, size: 0x8, addend: 0x0, symName: __ZNSt3__112basic_stringIcNS_11char_traitsIcEENS_9allocatorIcEEE15__set_long_sizeB7v160006Em, symObjAddr: 0x510, symBinAddr: 0x100000C60, symSize: 0x30 }
  - { offsetInCU: 0x7768, offset: 0x7768, size: 0x8, addend: 0x0, symName: __ZNSt3__122__compressed_pair_elemINS_12basic_stringIcNS_11char_traitsIcEENS_9allocatorIcEEE5__repELi0ELb0EE5__getB7v160006Ev, symObjAddr: 0x540, symBinAddr: 0x100000C90, symSize: 0x10 }
  - { offsetInCU: 0x778C, offset: 0x778C, size: 0x8, addend: 0x0, symName: __ZNSt3__112basic_stringIcNS_11char_traitsIcEENS_9allocatorIcEEE10__align_itB7v160006ILm16EEEmm, symObjAddr: 0x550, symBinAddr: 0x100000CA0, symSize: 0x20 }
  - { offsetInCU: 0x77B9, offset: 0x77B9, size: 0x8, addend: 0x0, symName: __ZNSt3__19allocatorIcE8allocateB7v160006Em, symObjAddr: 0x570, symBinAddr: 0x100000CC0, symSize: 0x80 }
  - { offsetInCU: 0x77F5, offset: 0x77F5, size: 0x8, addend: 0x0, symName: __ZNSt3__116allocator_traitsINS_9allocatorIcEEE8max_sizeB7v160006IS2_vEEmRKS2_, symObjAddr: 0x5F0, symBinAddr: 0x100000D40, symSize: 0x20 }
  - { offsetInCU: 0x7822, offset: 0x7822, size: 0x8, addend: 0x0, symName: __ZNKSt3__19allocatorIcE8max_sizeB7v160006Ev, symObjAddr: 0x670, symBinAddr: 0x100000DC0, symSize: 0x20 }
  - { offsetInCU: 0x7846, offset: 0x7846, size: 0x8, addend: 0x0, symName: __ZNSt3__117__compressed_pairINS_12basic_stringIcNS_11char_traitsIcEENS_9allocatorIcEEE5__repES5_E6secondB7v160006Ev, symObjAddr: 0x6B0, symBinAddr: 0x100000E00, symSize: 0x20 }
  - { offsetInCU: 0x786A, offset: 0x786A, size: 0x8, addend: 0x0, symName: __ZNSt3__122__compressed_pair_elemINS_9allocatorIcEELi1ELb1EE5__getB7v160006Ev, symObjAddr: 0x6D0, symBinAddr: 0x100000E20, symSize: 0x10 }
  - { offsetInCU: 0x788E, offset: 0x788E, size: 0x8, addend: 0x0, symName: __ZNSt3__111char_traitsIcE6lengthEPKc, symObjAddr: 0x8D0, symBinAddr: 0x100001020, symSize: 0x40 }
  - { offsetInCU: 0x78CE, offset: 0x78CE, size: 0x8, addend: 0x0, symName: __ZNKSt3__113basic_ostreamIcNS_11char_traitsIcEEE6sentrycvbB7v160006Ev, symObjAddr: 0x910, symBinAddr: 0x100001060, symSize: 0x20 }
  - { offsetInCU: 0x78F2, offset: 0x78F2, size: 0x8, addend: 0x0, symName: __ZNSt3__119ostreambuf_iteratorIcNS_11char_traitsIcEEEC1B7v160006ERNS_13basic_ostreamIcS2_EE, symObjAddr: 0xB50, symBinAddr: 0x1000012A0, symSize: 0x30 }
  - { offsetInCU: 0x7929, offset: 0x7929, size: 0x8, addend: 0x0, symName: __ZNKSt3__18ios_base5flagsB7v160006Ev, symObjAddr: 0xB80, symBinAddr: 0x1000012D0, symSize: 0x20 }
  - { offsetInCU: 0x794F, offset: 0x794F, size: 0x8, addend: 0x0, symName: __ZNKSt3__19basic_iosIcNS_11char_traitsIcEEE4fillB7v160006Ev, symObjAddr: 0xBA0, symBinAddr: 0x1000012F0, symSize: 0x70 }
  - { offsetInCU: 0x7974, offset: 0x7974, size: 0x8, addend: 0x0, symName: __ZNKSt3__119ostreambuf_iteratorIcNS_11char_traitsIcEEE6failedB7v160006Ev, symObjAddr: 0xC10, symBinAddr: 0x100001360, symSize: 0x20 }
  - { offsetInCU: 0x7998, offset: 0x7998, size: 0x8, addend: 0x0, symName: __ZNSt3__19basic_iosIcNS_11char_traitsIcEEE8setstateB7v160006Ej, symObjAddr: 0xC30, symBinAddr: 0x100001380, symSize: 0x30 }
  - { offsetInCU: 0x79CC, offset: 0x79CC, size: 0x8, addend: 0x0, symName: __ZNKSt3__18ios_base5widthB7v160006Ev, symObjAddr: 0xC60, symBinAddr: 0x1000013B0, symSize: 0x20 }
  - { offsetInCU: 0x79F1, offset: 0x79F1, size: 0x8, addend: 0x0, symName: __ZNSt3__115basic_streambufIcNS_11char_traitsIcEEE5sputnB7v160006EPKcl, symObjAddr: 0xC80, symBinAddr: 0x1000013D0, symSize: 0x30 }
  - { offsetInCU: 0x7A31, offset: 0x7A31, size: 0x8, addend: 0x0, symName: __ZNSt3__112basic_stringIcNS_11char_traitsIcEENS_9allocatorIcEEEC1B7v160006Emc, symObjAddr: 0xCB0, symBinAddr: 0x100001400, symSize: 0x30 }
  - { offsetInCU: 0x7A77, offset: 0x7A77, size: 0x8, addend: 0x0, symName: __ZNKSt3__112basic_stringIcNS_11char_traitsIcEENS_9allocatorIcEEE4dataB7v160006Ev, symObjAddr: 0xCE0, symBinAddr: 0x100001430, symSize: 0x30 }
  - { offsetInCU: 0x7A9C, offset: 0x7A9C, size: 0x8, addend: 0x0, symName: __ZNSt3__18ios_base5widthB7v160006El, symObjAddr: 0xD10, symBinAddr: 0x100001460, symSize: 0x30 }
  - { offsetInCU: 0x7ADF, offset: 0x7ADF, size: 0x8, addend: 0x0, symName: __ZNSt3__112basic_stringIcNS_11char_traitsIcEENS_9allocatorIcEEEC2B7v160006Emc, symObjAddr: 0xD40, symBinAddr: 0x100001490, symSize: 0x50 }
  - { offsetInCU: 0x7B25, offset: 0x7B25, size: 0x8, addend: 0x0, symName: __ZNKSt3__112basic_stringIcNS_11char_traitsIcEENS_9allocatorIcEEE13__get_pointerB7v160006Ev, symObjAddr: 0xDA0, symBinAddr: 0x1000014F0, symSize: 0x50 }
  - { offsetInCU: 0x7B49, offset: 0x7B49, size: 0x8, addend: 0x0, symName: __ZNKSt3__112basic_stringIcNS_11char_traitsIcEENS_9allocatorIcEEE9__is_longB7v160006Ev, symObjAddr: 0xDF0, symBinAddr: 0x100001540, symSize: 0x60 }
  - { offsetInCU: 0x7B6D, offset: 0x7B6D, size: 0x8, addend: 0x0, symName: __ZNKSt3__112basic_stringIcNS_11char_traitsIcEENS_9allocatorIcEEE18__get_long_pointerB7v160006Ev, symObjAddr: 0xE50, symBinAddr: 0x1000015A0, symSize: 0x20 }
  - { offsetInCU: 0x7B91, offset: 0x7B91, size: 0x8, addend: 0x0, symName: __ZNKSt3__112basic_stringIcNS_11char_traitsIcEENS_9allocatorIcEEE19__get_short_pointerB7v160006Ev, symObjAddr: 0xE70, symBinAddr: 0x1000015C0, symSize: 0x30 }
  - { offsetInCU: 0x7BB5, offset: 0x7BB5, size: 0x8, addend: 0x0, symName: __ZNKSt3__117__compressed_pairINS_12basic_stringIcNS_11char_traitsIcEENS_9allocatorIcEEE5__repES5_E5firstB7v160006Ev, symObjAddr: 0xEA0, symBinAddr: 0x1000015F0, symSize: 0x20 }
  - { offsetInCU: 0x7BD9, offset: 0x7BD9, size: 0x8, addend: 0x0, symName: __ZNKSt3__122__compressed_pair_elemINS_12basic_stringIcNS_11char_traitsIcEENS_9allocatorIcEEE5__repELi0ELb0EE5__getB7v160006Ev, symObjAddr: 0xEC0, symBinAddr: 0x100001610, symSize: 0x10 }
  - { offsetInCU: 0x7BFD, offset: 0x7BFD, size: 0x8, addend: 0x0, symName: __ZNSt3__114pointer_traitsIPKcE10pointer_toB7v160006ERS1_, symObjAddr: 0xED0, symBinAddr: 0x100001620, symSize: 0x10 }
  - { offsetInCU: 0x7C1F, offset: 0x7C1F, size: 0x8, addend: 0x0, symName: __ZNSt3__119ostreambuf_iteratorIcNS_11char_traitsIcEEEC2B7v160006ERNS_13basic_ostreamIcS2_EE, symObjAddr: 0xEE0, symBinAddr: 0x100001630, symSize: 0x60 }
  - { offsetInCU: 0x7C56, offset: 0x7C56, size: 0x8, addend: 0x0, symName: __ZNKSt3__19basic_iosIcNS_11char_traitsIcEEE5rdbufB7v160006Ev, symObjAddr: 0xF40, symBinAddr: 0x100001690, symSize: 0x20 }
  - { offsetInCU: 0x7C7B, offset: 0x7C7B, size: 0x8, addend: 0x0, symName: __ZNKSt3__18ios_base5rdbufB7v160006Ev, symObjAddr: 0xF60, symBinAddr: 0x1000016B0, symSize: 0x20 }
  - { offsetInCU: 0x7C9F, offset: 0x7C9F, size: 0x8, addend: 0x0, symName: __ZNSt3__111char_traitsIcE11eq_int_typeEii, symObjAddr: 0xF80, symBinAddr: 0x1000016D0, symSize: 0x20 }
  - { offsetInCU: 0x7CD0, offset: 0x7CD0, size: 0x8, addend: 0x0, symName: __ZNSt3__111char_traitsIcE3eofEv, symObjAddr: 0xFA0, symBinAddr: 0x1000016F0, symSize: 0x10 }
  - { offsetInCU: 0x7CE4, offset: 0x7CE4, size: 0x8, addend: 0x0, symName: __ZNKSt3__19basic_iosIcNS_11char_traitsIcEEE5widenB7v160006Ec, symObjAddr: 0xFB0, symBinAddr: 0x100001700, symSize: 0x90 }
  - { offsetInCU: 0x7D4F, offset: 0x7D4F, size: 0x8, addend: 0x0, symName: __ZNKSt3__15ctypeIcE5widenB7v160006Ec, symObjAddr: 0x1070, symBinAddr: 0x1000017C0, symSize: 0x30 }
  - { offsetInCU: 0x7D83, offset: 0x7D83, size: 0x8, addend: 0x0, symName: __ZNSt3__18ios_base8setstateB7v160006Ej, symObjAddr: 0x10A0, symBinAddr: 0x1000017F0, symSize: 0x30 }
  - { offsetInCU: 0x7F2C, offset: 0xFD38, size: 0x8, addend: 0x0, symName: __ZNSt3__1lsB7v160006IcNS_11char_traitsIcEENS_9allocatorIcEEEERNS_13basic_ostreamIT_T0_EES9_RKNS_12basic_stringIS6_S7_T1_EE, symObjAddr: 0x1A0, symBinAddr: 0x100001990, symSize: 0x50 }
  - { offsetInCU: 0xA969, offset: 0x12775, size: 0x8, addend: 0x0, symName: __ZN5AdminC2ENSt3__112basic_stringIcNS0_11char_traitsIcEENS0_9allocatorIcEEEES6_P12StateManager, symObjAddr: 0x0, symBinAddr: 0x100001840, symSize: 0x150 }
  - { offsetInCU: 0xA9BF, offset: 0x127CB, size: 0x8, addend: 0x0, symName: __ZN7AccountD2Ev, symObjAddr: 0x1F0, symBinAddr: 0x1000019E0, symSize: 0x70 }
  - { offsetInCU: 0xA9E9, offset: 0x127F5, size: 0x8, addend: 0x0, symName: __ZN5AdminC1ENSt3__112basic_stringIcNS0_11char_traitsIcEENS0_9allocatorIcEEEES6_P12StateManager, symObjAddr: 0x260, symBinAddr: 0x100001A50, symSize: 0x30 }
  - { offsetInCU: 0xAA3F, offset: 0x1284B, size: 0x8, addend: 0x0, symName: __ZN5Admin18createAdminRequestEP12AdminRequest, symObjAddr: 0x290, symBinAddr: 0x100001A80, symSize: 0x40 }
  - { offsetInCU: 0xAA92, offset: 0x1289E, size: 0x8, addend: 0x0, symName: __ZNKSt3__112basic_stringIcNS_11char_traitsIcEENS_9allocatorIcEEE4sizeB7v160006Ev, symObjAddr: 0xDC0, symBinAddr: 0x100001AC0, symSize: 0x50 }
  - { offsetInCU: 0xAAB6, offset: 0x128C2, size: 0x8, addend: 0x0, symName: __ZNKSt3__112basic_stringIcNS_11char_traitsIcEENS_9allocatorIcEEE15__get_long_sizeB7v160006Ev, symObjAddr: 0xE10, symBinAddr: 0x100001B10, symSize: 0x20 }
  - { offsetInCU: 0xAADA, offset: 0x128E6, size: 0x8, addend: 0x0, symName: __ZNKSt3__112basic_stringIcNS_11char_traitsIcEENS_9allocatorIcEEE16__get_short_sizeB7v160006Ev, symObjAddr: 0xE30, symBinAddr: 0x100001B30, symSize: 0x23 }
  - { offsetInCU: 0x476B, offset: 0x1707F, size: 0x8, addend: 0x0, symName: __ZN12AdminRequestC2ENSt3__112basic_stringIcNS0_11char_traitsIcEENS0_9allocatorIcEEEES6_b, symObjAddr: 0x0, symBinAddr: 0x100001B60, symSize: 0xE0 }
  - { offsetInCU: 0x47C1, offset: 0x170D5, size: 0x8, addend: 0x0, symName: __ZN12AdminRequestC1ENSt3__112basic_stringIcNS0_11char_traitsIcEENS0_9allocatorIcEEEES6_b, symObjAddr: 0x110, symBinAddr: 0x100001C40, symSize: 0x40 }
  - { offsetInCU: 0x45C9, offset: 0x1B6F9, size: 0x8, addend: 0x0, symName: __ZN5StateC2ENSt3__112basic_stringIcNS0_11char_traitsIcEENS0_9allocatorIcEEEES6_S6_, symObjAddr: 0x0, symBinAddr: 0x100001C80, symSize: 0x120 }
  - { offsetInCU: 0x4620, offset: 0x1B750, size: 0x8, addend: 0x0, symName: __ZN5StateC1ENSt3__112basic_stringIcNS0_11char_traitsIcEENS0_9allocatorIcEEEES6_S6_, symObjAddr: 0x150, symBinAddr: 0x100001DA0, symSize: 0x30 }
  - { offsetInCU: 0x39, offset: 0x1B7E5, size: 0x8, addend: 0x0, symName: __ZN12StateManager20stateManagerInstanceE, symObjAddr: 0x65688, symBinAddr: 0x100014000, symSize: 0x0 }
  - { offsetInCU: 0xA2A4, offset: 0x25A50, size: 0x8, addend: 0x0, symName: __ZNSt3__14endlB7v160006IcNS_11char_traitsIcEEEERNS_13basic_ostreamIT_T0_EES7_, symObjAddr: 0x6C0, symBinAddr: 0x100002440, symSize: 0x50 }
  - { offsetInCU: 0xA2E4, offset: 0x25A90, size: 0x8, addend: 0x0, symName: __ZNSt3__119__debug_db_insert_cB7v160006INS_13unordered_mapINS_12basic_stringIcNS_11char_traitsIcEENS_9allocatorIcEEEENS_6vectorIP5StateNS5_ISA_EEEENS_4hashIS7_EENS_8equal_toIS7_EENS5_INS_4pairIKS7_SC_EEEEEEEEvPT_, symObjAddr: 0x7C0, symBinAddr: 0x100002540, symSize: 0x10 }
  - { offsetInCU: 0xA315, offset: 0x25AC1, size: 0x8, addend: 0x0, symName: __ZNSt3__119__libcpp_deallocateB7v160006EPvmm, symObjAddr: 0xF80, symBinAddr: 0x100002CF0, symSize: 0x30 }
  - { offsetInCU: 0xA35E, offset: 0x25B0A, size: 0x8, addend: 0x0, symName: __ZNSt3__127__do_deallocate_handle_sizeB7v160006IJEEEvPvmDpT_, symObjAddr: 0xFB0, symBinAddr: 0x100002D20, symSize: 0x20 }
  - { offsetInCU: 0xA39E, offset: 0x25B4A, size: 0x8, addend: 0x0, symName: __ZNSt3__124__libcpp_operator_deleteB7v160006IJPvEEEvDpT_, symObjAddr: 0xFD0, symBinAddr: 0x100002D40, symSize: 0x20 }
  - { offsetInCU: 0xA3D4, offset: 0x25B80, size: 0x8, addend: 0x0, symName: __ZNSt3__118__debug_db_erase_cB7v160006INS_12__hash_tableINS_17__hash_value_typeINS_12basic_stringIcNS_11char_traitsIcEENS_9allocatorIcEEEENS_6vectorIP5StateNS6_ISB_EEEEEENS_22__unordered_map_hasherIS8_SE_NS_4hashIS8_EENS_8equal_toIS8_EELb1EEENS_21__unordered_map_equalIS8_SE_SJ_SH_Lb1EEENS6_ISE_EEEEEEvPT_, symObjAddr: 0x11A0, symBinAddr: 0x100002F10, symSize: 0x10 }
  - { offsetInCU: 0xA438, offset: 0x25BE4, size: 0x8, addend: 0x0, symName: __ZNSt3__118__debug_db_erase_cB7v160006INS_6vectorIP5StateNS_9allocatorIS3_EEEEEEvPT_, symObjAddr: 0x15A0, symBinAddr: 0x100003310, symSize: 0x10 }
  - { offsetInCU: 0xA469, offset: 0x25C15, size: 0x8, addend: 0x0, symName: __ZNSt3__112__to_addressB7v160006IP5StateEEPT_S4_, symObjAddr: 0x1690, symBinAddr: 0x100003400, symSize: 0x10 }
  - { offsetInCU: 0xA49E, offset: 0x25C4A, size: 0x8, addend: 0x0, symName: __ZNSt3__1neB7v160006ERKNS_19__hash_map_iteratorINS_15__hash_iteratorIPNS_11__hash_nodeINS_17__hash_value_typeINS_12basic_stringIcNS_11char_traitsIcEENS_9allocatorIcEEEENS_6vectorIP5StateNS7_ISC_EEEEEEPvEEEEEESM_, symObjAddr: 0x18A0, symBinAddr: 0x100003610, symSize: 0x30 }
  - { offsetInCU: 0xA4DB, offset: 0x25C87, size: 0x8, addend: 0x0, symName: __ZNSt3__116__constrain_hashB7v160006Emm, symObjAddr: 0x1E10, symBinAddr: 0x100003B80, symSize: 0x80 }
  - { offsetInCU: 0xA515, offset: 0x25CC1, size: 0x8, addend: 0x0, symName: __ZNSt3__116__do_string_hashB7v160006IPKcEEmT_S3_, symObjAddr: 0x2040, symBinAddr: 0x100003DB0, symSize: 0x40 }
  - { offsetInCU: 0xA55B, offset: 0x25D07, size: 0x8, addend: 0x0, symName: __ZNSt3__110__loadwordB7v160006ImEET_PKv, symObjAddr: 0x29B0, symBinAddr: 0x1000046A0, symSize: 0x20 }
  - { offsetInCU: 0xA59F, offset: 0x25D4B, size: 0x8, addend: 0x0, symName: __ZNSt3__14swapB7v160006ImEEvRT_S2_, symObjAddr: 0x2B70, symBinAddr: 0x100004860, symSize: 0x40 }
  - { offsetInCU: 0xA5F1, offset: 0x25D9D, size: 0x8, addend: 0x0, symName: __ZNSt3__110__loadwordB7v160006IjEET_PKv, symObjAddr: 0x2C00, symBinAddr: 0x1000048F0, symSize: 0x20 }
  - { offsetInCU: 0xA635, offset: 0x25DE1, size: 0x8, addend: 0x0, symName: __ZNSt3__1eqB7v160006INS_9allocatorIcEEEEbRKNS_12basic_stringIcNS_11char_traitsIcEET_EES9_, symObjAddr: 0x3030, symBinAddr: 0x100004B80, symSize: 0x110 }
  - { offsetInCU: 0xA6A8, offset: 0x25E54, size: 0x8, addend: 0x0, symName: __ZNSt3__118__constexpr_memcmpB7v160006IcEEiPKT_S3_m, symObjAddr: 0x31B0, symBinAddr: 0x100004D00, symSize: 0x30 }
  - { offsetInCU: 0xA6F9, offset: 0x25EA5, size: 0x8, addend: 0x0, symName: __ZNSt3__1neB7v160006ERKNS_15__hash_iteratorIPNS_11__hash_nodeINS_17__hash_value_typeINS_12basic_stringIcNS_11char_traitsIcEENS_9allocatorIcEEEENS_6vectorIP5StateNS6_ISB_EEEEEEPvEEEESK_, symObjAddr: 0x3220, symBinAddr: 0x100004D70, symSize: 0x30 }
  - { offsetInCU: 0xA736, offset: 0x25EE2, size: 0x8, addend: 0x0, symName: __ZNSt3__1eqB7v160006ERKNS_15__hash_iteratorIPNS_11__hash_nodeINS_17__hash_value_typeINS_12basic_stringIcNS_11char_traitsIcEENS_9allocatorIcEEEENS_6vectorIP5StateNS6_ISB_EEEEEEPvEEEESK_, symObjAddr: 0x3250, symBinAddr: 0x100004DA0, symSize: 0x30 }
  - { offsetInCU: 0xA7F7, offset: 0x25FA3, size: 0x8, addend: 0x0, symName: __ZNSt3__119__debug_db_insert_cB7v160006INS_6vectorIP5StateNS_9allocatorIS3_EEEEEEvPT_, symObjAddr: 0x37D0, symBinAddr: 0x1000052A0, symSize: 0x10 }
  - { offsetInCU: 0xA828, offset: 0x25FD4, size: 0x8, addend: 0x0, symName: __ZNSt3__13maxB7v160006ImEERKT_S3_S3_, symObjAddr: 0x3DF0, symBinAddr: 0x1000058C0, symSize: 0x30 }
  - { offsetInCU: 0xA86B, offset: 0x26017, size: 0x8, addend: 0x0, symName: __ZNSt3__116__is_hash_power2B7v160006Em, symObjAddr: 0x3E20, symBinAddr: 0x1000058F0, symSize: 0x40 }
  - { offsetInCU: 0xA897, offset: 0x26043, size: 0x8, addend: 0x0, symName: __ZNSt3__116__next_hash_pow2B7v160006Em, symObjAddr: 0x4360, symBinAddr: 0x100005E30, symSize: 0x60 }
  - { offsetInCU: 0xA8C3, offset: 0x2606F, size: 0x8, addend: 0x0, symName: __ZNSt3__125__debug_db_invalidate_allB7v160006INS_12__hash_tableINS_17__hash_value_typeINS_12basic_stringIcNS_11char_traitsIcEENS_9allocatorIcEEEENS_6vectorIP5StateNS6_ISB_EEEEEENS_22__unordered_map_hasherIS8_SE_NS_4hashIS8_EENS_8equal_toIS8_EELb1EEENS_21__unordered_map_equalIS8_SE_SJ_SH_Lb1EEENS6_ISE_EEEEEEvPT_, symObjAddr: 0x43C0, symBinAddr: 0x100005E90, symSize: 0x10 }
  - { offsetInCU: 0xA913, offset: 0x260BF, size: 0x8, addend: 0x0, symName: __ZNSt3__112__libcpp_clzB7v160006Em, symObjAddr: 0x4550, symBinAddr: 0x100006020, symSize: 0x20 }
  - { offsetInCU: 0xA93F, offset: 0x260EB, size: 0x8, addend: 0x0, symName: __ZNSt3__13maxB7v160006ImNS_6__lessImmEEEERKT_S5_S5_T0_, symObjAddr: 0x4570, symBinAddr: 0x100006040, symSize: 0x50 }
  - { offsetInCU: 0xA9D4, offset: 0x26180, size: 0x8, addend: 0x0, symName: __ZNSt3__13minB7v160006ImEERKT_S3_S3_, symObjAddr: 0x4DD0, symBinAddr: 0x1000068A0, symSize: 0x30 }
  - { offsetInCU: 0xAC22, offset: 0x263CE, size: 0x8, addend: 0x0, symName: __ZNSt3__13minB7v160006ImNS_6__lessImmEEEERKT_S5_S5_T0_, symObjAddr: 0x4E50, symBinAddr: 0x100006920, symSize: 0x50 }
  - { offsetInCU: 0xAC7C, offset: 0x26428, size: 0x8, addend: 0x0, symName: __ZNSt3__120__throw_length_errorB7v160006EPKc, symObjAddr: 0x4F00, symBinAddr: 0x1000069D0, symSize: 0x70 }
  - { offsetInCU: 0xACA5, offset: 0x26451, size: 0x8, addend: 0x0, symName: __ZNSt3__119__allocate_at_leastB7v160006INS_9allocatorIP5StateEEEENS_19__allocation_resultINS_16allocator_traitsIT_E7pointerEEERS7_m, symObjAddr: 0x50E0, symBinAddr: 0x100006BB0, symSize: 0x40 }
  - { offsetInCU: 0xACE8, offset: 0x26494, size: 0x8, addend: 0x0, symName: __ZNSt3__142__uninitialized_allocator_move_if_noexceptB7v160006INS_9allocatorIP5StateEENS_16reverse_iteratorIPS3_EES7_S3_vEET1_RT_T0_SB_S8_, symObjAddr: 0x52A0, symBinAddr: 0x100006D70, symSize: 0x120 }
  - { offsetInCU: 0xAD65, offset: 0x26511, size: 0x8, addend: 0x0, symName: __ZNSt3__14swapB7v160006IPP5StateEEvRT_S5_, symObjAddr: 0x5410, symBinAddr: 0x100006EE0, symSize: 0x40 }
  - { offsetInCU: 0xADB7, offset: 0x26563, size: 0x8, addend: 0x0, symName: __ZNSt3__125__debug_db_invalidate_allB7v160006INS_6vectorIP5StateNS_9allocatorIS3_EEEEEEvPT_, symObjAddr: 0x5500, symBinAddr: 0x100006FD0, symSize: 0x10 }
  - { offsetInCU: 0xADE8, offset: 0x26594, size: 0x8, addend: 0x0, symName: __ZNSt3__1neB7v160006IPP5StateS3_EEbRKNS_16reverse_iteratorIT_EERKNS4_IT0_EE, symObjAddr: 0x5510, symBinAddr: 0x100006FE0, symSize: 0x40 }
  - { offsetInCU: 0xAE5B, offset: 0x26607, size: 0x8, addend: 0x0, symName: __ZNSt3__114__construct_atB7v160006IP5StateJS2_EPS2_EEPT_S5_DpOT0_, symObjAddr: 0x5550, symBinAddr: 0x100007020, symSize: 0x30 }
  - { offsetInCU: 0xAECD, offset: 0x26679, size: 0x8, addend: 0x0, symName: __ZNSt3__112__to_addressB7v160006INS_16reverse_iteratorIPP5StateEEvEENS_5decayIDTclsr19__to_address_helperIT_EE6__callclsr3stdE7declvalIRKS7_EEEEE4typeES9_, symObjAddr: 0x5580, symBinAddr: 0x100007050, symSize: 0x20 }
  - { offsetInCU: 0xAF03, offset: 0x266AF, size: 0x8, addend: 0x0, symName: __ZNSt3__14moveB7v160006INS_16reverse_iteratorIPP5StateEES5_EET0_T_S7_S6_, symObjAddr: 0x55F0, symBinAddr: 0x1000070C0, symSize: 0x80 }
  - { offsetInCU: 0xAF87, offset: 0x26733, size: 0x8, addend: 0x0, symName: __ZNSt3__16__moveB7v160006INS_17_ClassicAlgPolicyENS_16reverse_iteratorIPP5StateEES6_S6_EENS_4pairIT0_T2_EES8_T1_S9_, symObjAddr: 0x56E0, symBinAddr: 0x1000071B0, symSize: 0x90 }
  - { offsetInCU: 0xAFF3, offset: 0x2679F, size: 0x8, addend: 0x0, symName: __ZNSt3__123__dispatch_copy_or_moveB7v160006INS_17_ClassicAlgPolicyENS_11__move_loopIS1_EENS_14__move_trivialENS_16reverse_iteratorIPP5StateEES9_S9_EENS_4pairIT2_T4_EESB_T3_SC_, symObjAddr: 0x5770, symBinAddr: 0x100007240, symSize: 0xB0 }
  - { offsetInCU: 0xB071, offset: 0x2681D, size: 0x8, addend: 0x0, symName: __ZNSt3__121__unwrap_and_dispatchB7v160006INS_10__overloadINS_11__move_loopINS_17_ClassicAlgPolicyEEENS_14__move_trivialEEENS_16reverse_iteratorIPP5StateEESB_SB_Li0EEENS_4pairIT0_T2_EESD_T1_SE_, symObjAddr: 0x5820, symBinAddr: 0x1000072F0, symSize: 0x210 }
  - { offsetInCU: 0xB103, offset: 0x268AF, size: 0x8, addend: 0x0, symName: __ZNSt3__114__unwrap_rangeB7v160006INS_16reverse_iteratorIPP5StateEES5_EENS_4pairIT0_S7_EET_S9_, symObjAddr: 0x5A30, symBinAddr: 0x100007500, symSize: 0x90 }
  - { offsetInCU: 0xB257, offset: 0x26A03, size: 0x8, addend: 0x0, symName: __ZNSt3__113__unwrap_iterB7v160006INS_16reverse_iteratorIPP5StateEENS_18__unwrap_iter_implIS5_Lb0EEELi0EEEDTclsrT0_8__unwrapclsr3stdE7declvalIT_EEEES9_, symObjAddr: 0x5B60, symBinAddr: 0x100007630, symSize: 0x40 }
  - { offsetInCU: 0xB29C, offset: 0x26A48, size: 0x8, addend: 0x0, symName: __ZNSt3__19make_pairB7v160006INS_16reverse_iteratorIPP5StateEES5_EENS_4pairINS_18__unwrap_ref_decayIT_E4typeENS7_IT0_E4typeEEEOS8_OSB_, symObjAddr: 0x5BA0, symBinAddr: 0x100007670, symSize: 0x30 }
  - { offsetInCU: 0xB2EB, offset: 0x26A97, size: 0x8, addend: 0x0, symName: __ZNSt3__114__rewrap_rangeB7v160006INS_16reverse_iteratorIPP5StateEES5_EET_S6_T0_, symObjAddr: 0x5BD0, symBinAddr: 0x1000076A0, symSize: 0x60 }
  - { offsetInCU: 0xB337, offset: 0x26AE3, size: 0x8, addend: 0x0, symName: __ZNSt3__113__rewrap_iterB7v160006INS_16reverse_iteratorIPP5StateEES5_NS_18__unwrap_iter_implIS5_Lb0EEEEET_S8_T0_, symObjAddr: 0x5C30, symBinAddr: 0x100007700, symSize: 0x80 }
  - { offsetInCU: 0xC070, offset: 0x2781C, size: 0x8, addend: 0x0, symName: __ZN12StateManager18staticStateManagerE, symObjAddr: 0x65690, symBinAddr: 0x100014008, symSize: 0x0 }
  - { offsetInCU: 0xC084, offset: 0x27830, size: 0x8, addend: 0x0, symName: __ZN12StateManager5toAddE, symObjAddr: 0x65698, symBinAddr: 0x100014010, symSize: 0x0 }
  - { offsetInCU: 0xC098, offset: 0x27844, size: 0x8, addend: 0x0, symName: __ZN12StateManager8toRemoveE, symObjAddr: 0x656C0, symBinAddr: 0x100014038, symSize: 0x0 }
  - { offsetInCU: 0xC0AC, offset: 0x27858, size: 0x8, addend: 0x0, symName: __ZN12StateManager3mtxE, symObjAddr: 0x656E8, symBinAddr: 0x100014060, symSize: 0x0 }
  - { offsetInCU: 0xC1E0, offset: 0x2798C, size: 0x8, addend: 0x0, symName: __ZNSt3__16vectorIP5StateNS_9allocatorIS2_EEE26__swap_out_circular_bufferERNS_14__split_bufferIS2_RS4_EE, symObjAddr: 0x4BF0, symBinAddr: 0x1000066C0, symSize: 0x130 }
  - { offsetInCU: 0xE051, offset: 0x297FD, size: 0x8, addend: 0x0, symName: __ZNSt3__113unordered_mapINS_12basic_stringIcNS_11char_traitsIcEENS_9allocatorIcEEEENS_6vectorIP5StateNS4_IS9_EEEENS_4hashIS6_EENS_8equal_toIS6_EENS4_INS_4pairIKS6_SB_EEEEEC1B7v160006Ev, symObjAddr: 0x0, symBinAddr: 0x100001DD0, symSize: 0x20 }
  - { offsetInCU: 0xE079, offset: 0x29825, size: 0x8, addend: 0x0, symName: __ZNSt3__113unordered_mapINS_12basic_stringIcNS_11char_traitsIcEENS_9allocatorIcEEEENS_6vectorIP5StateNS4_IS9_EEEENS_4hashIS6_EENS_8equal_toIS6_EENS4_INS_4pairIKS6_SB_EEEEED1B7v160006Ev, symObjAddr: 0x20, symBinAddr: 0x100001DF0, symSize: 0x20 }
  - { offsetInCU: 0xE0A1, offset: 0x2984D, size: 0x8, addend: 0x0, symName: __ZNSt3__15mutexC1B7v160006Ev, symObjAddr: 0x40, symBinAddr: 0x100001E10, symSize: 0x20 }
  - { offsetInCU: 0xE0C9, offset: 0x29875, size: 0x8, addend: 0x0, symName: __ZN12StateManagerC2Ev, symObjAddr: 0x60, symBinAddr: 0x100001E30, symSize: 0x10 }
  - { offsetInCU: 0xE0F3, offset: 0x2989F, size: 0x8, addend: 0x0, symName: __ZN12StateManagerC1Ev, symObjAddr: 0x70, symBinAddr: 0x100001E40, symSize: 0x20 }
  - { offsetInCU: 0xE11D, offset: 0x298C9, size: 0x8, addend: 0x0, symName: __ZN12StateManager11getInstanceEv, symObjAddr: 0x90, symBinAddr: 0x100001E60, symSize: 0x80 }
  - { offsetInCU: 0xE133, offset: 0x298DF, size: 0x8, addend: 0x0, symName: __ZN12StateManager14viewNextStatesENSt3__112basic_stringIcNS0_11char_traitsIcEENS0_9allocatorIcEEEE, symObjAddr: 0x110, symBinAddr: 0x100001EE0, symSize: 0xE0 }
  - { offsetInCU: 0xE179, offset: 0x29925, size: 0x8, addend: 0x0, symName: __ZNKSt3__16vectorIP5StateNS_9allocatorIS2_EEE4sizeB7v160006Ev, symObjAddr: 0x200, symBinAddr: 0x100001FC0, symSize: 0x20 }
  - { offsetInCU: 0xE19D, offset: 0x29949, size: 0x8, addend: 0x0, symName: __ZNSt3__16vectorIP5StateNS_9allocatorIS2_EEED1B7v160006Ev, symObjAddr: 0x220, symBinAddr: 0x100001FE0, symSize: 0x20 }
  - { offsetInCU: 0xE1C5, offset: 0x29971, size: 0x8, addend: 0x0, symName: __ZN12StateManager10addRequestENSt3__112basic_stringIcNS0_11char_traitsIcEENS0_9allocatorIcEEEES6_, symObjAddr: 0x240, symBinAddr: 0x100002000, symSize: 0x280 }
  - { offsetInCU: 0xE220, offset: 0x299CC, size: 0x8, addend: 0x0, symName: __ZNSt3__113unordered_mapINS_12basic_stringIcNS_11char_traitsIcEENS_9allocatorIcEEEENS_6vectorIP5StateNS4_IS9_EEEENS_4hashIS6_EENS_8equal_toIS6_EENS4_INS_4pairIKS6_SB_EEEEEixERSH_, symObjAddr: 0x4C0, symBinAddr: 0x100002280, symSize: 0x140 }
  - { offsetInCU: 0xE283, offset: 0x29A2F, size: 0x8, addend: 0x0, symName: __ZNSt3__16vectorIP5StateNS_9allocatorIS2_EEE9push_backB7v160006ERKS2_, symObjAddr: 0x600, symBinAddr: 0x1000023C0, symSize: 0x60 }
  - { offsetInCU: 0xE2B8, offset: 0x29A64, size: 0x8, addend: 0x0, symName: __ZNSt3__113basic_ostreamIcNS_11char_traitsIcEEElsB7v160006EPFRS3_S4_E, symObjAddr: 0x6A0, symBinAddr: 0x100002420, symSize: 0x20 }
  - { offsetInCU: 0xE2EA, offset: 0x29A96, size: 0x8, addend: 0x0, symName: __ZNSt3__15mutexC2B7v160006Ev, symObjAddr: 0x710, symBinAddr: 0x100002490, symSize: 0x30 }
  - { offsetInCU: 0xE312, offset: 0x29ABE, size: 0x8, addend: 0x0, symName: __ZNSt3__113unordered_mapINS_12basic_stringIcNS_11char_traitsIcEENS_9allocatorIcEEEENS_6vectorIP5StateNS4_IS9_EEEENS_4hashIS6_EENS_8equal_toIS6_EENS4_INS_4pairIKS6_SB_EEEEEC2B7v160006Ev, symObjAddr: 0x740, symBinAddr: 0x1000024C0, symSize: 0x60 }
  - { offsetInCU: 0xE33A, offset: 0x29AE6, size: 0x8, addend: 0x0, symName: __ZNSt3__112__hash_tableINS_17__hash_value_typeINS_12basic_stringIcNS_11char_traitsIcEENS_9allocatorIcEEEENS_6vectorIP5StateNS5_ISA_EEEEEENS_22__unordered_map_hasherIS7_SD_NS_4hashIS7_EENS_8equal_toIS7_EELb1EEENS_21__unordered_map_equalIS7_SD_SI_SG_Lb1EEENS5_ISD_EEEC1Ev, symObjAddr: 0x7A0, symBinAddr: 0x100002520, symSize: 0x20 }
  - { offsetInCU: 0xE365, offset: 0x29B11, size: 0x8, addend: 0x0, symName: __ZNSt3__112__hash_tableINS_17__hash_value_typeINS_12basic_stringIcNS_11char_traitsIcEENS_9allocatorIcEEEENS_6vectorIP5StateNS5_ISA_EEEEEENS_22__unordered_map_hasherIS7_SD_NS_4hashIS7_EENS_8equal_toIS7_EELb1EEENS_21__unordered_map_equalIS7_SD_SI_SG_Lb1EEENS5_ISD_EEED1Ev, symObjAddr: 0x7D0, symBinAddr: 0x100002550, symSize: 0x20 }
  - { offsetInCU: 0xE390, offset: 0x29B3C, size: 0x8, addend: 0x0, symName: __ZNSt3__112__hash_tableINS_17__hash_value_typeINS_12basic_stringIcNS_11char_traitsIcEENS_9allocatorIcEEEENS_6vectorIP5StateNS5_ISA_EEEEEENS_22__unordered_map_hasherIS7_SD_NS_4hashIS7_EENS_8equal_toIS7_EELb1EEENS_21__unordered_map_equalIS7_SD_SI_SG_Lb1EEENS5_ISD_EEEC2Ev, symObjAddr: 0x7F0, symBinAddr: 0x100002570, symSize: 0xB0 }
  - { offsetInCU: 0xE3BB, offset: 0x29B67, size: 0x8, addend: 0x0, symName: __ZNSt3__110unique_ptrIA_PNS_16__hash_node_baseIPNS_11__hash_nodeINS_17__hash_value_typeINS_12basic_stringIcNS_11char_traitsIcEENS_9allocatorIcEEEENS_6vectorIP5StateNS7_ISC_EEEEEEPvEEEENS_25__bucket_list_deallocatorINS7_ISK_EEEEEC1B7v160006ILb1EvEEv, symObjAddr: 0x8A0, symBinAddr: 0x100002620, symSize: 0x20 }
  - { offsetInCU: 0xE3EE, offset: 0x29B9A, size: 0x8, addend: 0x0, symName: __ZNSt3__117__compressed_pairINS_16__hash_node_baseIPNS_11__hash_nodeINS_17__hash_value_typeINS_12basic_stringIcNS_11char_traitsIcEENS_9allocatorIcEEEENS_6vectorIP5StateNS7_ISC_EEEEEEPvEEEENS7_ISH_EEEC1B7v160006ILb1EvEEv, symObjAddr: 0x8C0, symBinAddr: 0x100002640, symSize: 0x20 }
  - { offsetInCU: 0xE42B, offset: 0x29BD7, size: 0x8, addend: 0x0, symName: __ZNSt3__117__compressed_pairImNS_22__unordered_map_hasherINS_12basic_stringIcNS_11char_traitsIcEENS_9allocatorIcEEEENS_17__hash_value_typeIS7_NS_6vectorIP5StateNS5_ISB_EEEEEENS_4hashIS7_EENS_8equal_toIS7_EELb1EEEEC1B7v160006IiNS_18__default_init_tagEEEOT_OT0_, symObjAddr: 0x8E0, symBinAddr: 0x100002660, symSize: 0x30 }
  - { offsetInCU: 0xE486, offset: 0x29C32, size: 0x8, addend: 0x0, symName: __ZNSt3__117__compressed_pairIfNS_21__unordered_map_equalINS_12basic_stringIcNS_11char_traitsIcEENS_9allocatorIcEEEENS_17__hash_value_typeIS7_NS_6vectorIP5StateNS5_ISB_EEEEEENS_8equal_toIS7_EENS_4hashIS7_EELb1EEEEC1B7v160006IfNS_18__default_init_tagEEEOT_OT0_, symObjAddr: 0x910, symBinAddr: 0x100002690, symSize: 0x30 }
  - { offsetInCU: 0xE4DC, offset: 0x29C88, size: 0x8, addend: 0x0, symName: __ZNSt3__110unique_ptrIA_PNS_16__hash_node_baseIPNS_11__hash_nodeINS_17__hash_value_typeINS_12basic_stringIcNS_11char_traitsIcEENS_9allocatorIcEEEENS_6vectorIP5StateNS7_ISC_EEEEEEPvEEEENS_25__bucket_list_deallocatorINS7_ISK_EEEEED1B7v160006Ev, symObjAddr: 0x940, symBinAddr: 0x1000026C0, symSize: 0x20 }
  - { offsetInCU: 0xE504, offset: 0x29CB0, size: 0x8, addend: 0x0, symName: __ZNSt3__110unique_ptrIA_PNS_16__hash_node_baseIPNS_11__hash_nodeINS_17__hash_value_typeINS_12basic_stringIcNS_11char_traitsIcEENS_9allocatorIcEEEENS_6vectorIP5StateNS7_ISC_EEEEEEPvEEEENS_25__bucket_list_deallocatorINS7_ISK_EEEEEC2B7v160006ILb1EvEEv, symObjAddr: 0x960, symBinAddr: 0x1000026E0, symSize: 0x40 }
  - { offsetInCU: 0xE53C, offset: 0x29CE8, size: 0x8, addend: 0x0, symName: __ZNSt3__117__compressed_pairIPPNS_16__hash_node_baseIPNS_11__hash_nodeINS_17__hash_value_typeINS_12basic_stringIcNS_11char_traitsIcEENS_9allocatorIcEEEENS_6vectorIP5StateNS7_ISC_EEEEEEPvEEEENS_25__bucket_list_deallocatorINS7_ISK_EEEEEC1B7v160006INS_16__value_init_tagESR_EEOT_OT0_, symObjAddr: 0x9A0, symBinAddr: 0x100002720, symSize: 0x30 }
  - { offsetInCU: 0xE592, offset: 0x29D3E, size: 0x8, addend: 0x0, symName: __ZNSt3__117__compressed_pairIPPNS_16__hash_node_baseIPNS_11__hash_nodeINS_17__hash_value_typeINS_12basic_stringIcNS_11char_traitsIcEENS_9allocatorIcEEEENS_6vectorIP5StateNS7_ISC_EEEEEEPvEEEENS_25__bucket_list_deallocatorINS7_ISK_EEEEEC2B7v160006INS_16__value_init_tagESR_EEOT_OT0_, symObjAddr: 0x9D0, symBinAddr: 0x100002750, symSize: 0x40 }
  - { offsetInCU: 0xE5E8, offset: 0x29D94, size: 0x8, addend: 0x0, symName: __ZNSt3__122__compressed_pair_elemIPPNS_16__hash_node_baseIPNS_11__hash_nodeINS_17__hash_value_typeINS_12basic_stringIcNS_11char_traitsIcEENS_9allocatorIcEEEENS_6vectorIP5StateNS7_ISC_EEEEEEPvEEEELi0ELb0EEC2B7v160006ENS_16__value_init_tagE, symObjAddr: 0xA10, symBinAddr: 0x100002790, symSize: 0x20 }
  - { offsetInCU: 0xE61A, offset: 0x29DC6, size: 0x8, addend: 0x0, symName: __ZNSt3__122__compressed_pair_elemINS_25__bucket_list_deallocatorINS_9allocatorIPNS_16__hash_node_baseIPNS_11__hash_nodeINS_17__hash_value_typeINS_12basic_stringIcNS_11char_traitsIcEENS2_IcEEEENS_6vectorIP5StateNS2_ISD_EEEEEEPvEEEEEEEELi1ELb0EEC2B7v160006ENS_16__value_init_tagE, symObjAddr: 0xA30, symBinAddr: 0x1000027B0, symSize: 0x20 }
  - { offsetInCU: 0xE64C, offset: 0x29DF8, size: 0x8, addend: 0x0, symName: __ZNSt3__125__bucket_list_deallocatorINS_9allocatorIPNS_16__hash_node_baseIPNS_11__hash_nodeINS_17__hash_value_typeINS_12basic_stringIcNS_11char_traitsIcEENS1_IcEEEENS_6vectorIP5StateNS1_ISC_EEEEEEPvEEEEEEEC1B7v160006Ev, symObjAddr: 0xA50, symBinAddr: 0x1000027D0, symSize: 0x20 }
  - { offsetInCU: 0xE674, offset: 0x29E20, size: 0x8, addend: 0x0, symName: __ZNSt3__125__bucket_list_deallocatorINS_9allocatorIPNS_16__hash_node_baseIPNS_11__hash_nodeINS_17__hash_value_typeINS_12basic_stringIcNS_11char_traitsIcEENS1_IcEEEENS_6vectorIP5StateNS1_ISC_EEEEEEPvEEEEEEEC2B7v160006Ev, symObjAddr: 0xA70, symBinAddr: 0x1000027F0, symSize: 0x30 }
  - { offsetInCU: 0xE69C, offset: 0x29E48, size: 0x8, addend: 0x0, symName: __ZNSt3__117__compressed_pairImNS_9allocatorIPNS_16__hash_node_baseIPNS_11__hash_nodeINS_17__hash_value_typeINS_12basic_stringIcNS_11char_traitsIcEENS1_IcEEEENS_6vectorIP5StateNS1_ISC_EEEEEEPvEEEEEEEC1B7v160006IiNS_18__default_init_tagEEEOT_OT0_, symObjAddr: 0xAA0, symBinAddr: 0x100002820, symSize: 0x30 }
  - { offsetInCU: 0xE6F2, offset: 0x29E9E, size: 0x8, addend: 0x0, symName: __ZNSt3__117__compressed_pairImNS_9allocatorIPNS_16__hash_node_baseIPNS_11__hash_nodeINS_17__hash_value_typeINS_12basic_stringIcNS_11char_traitsIcEENS1_IcEEEENS_6vectorIP5StateNS1_ISC_EEEEEEPvEEEEEEEC2B7v160006IiNS_18__default_init_tagEEEOT_OT0_, symObjAddr: 0xAD0, symBinAddr: 0x100002850, symSize: 0x40 }
  - { offsetInCU: 0xE748, offset: 0x29EF4, size: 0x8, addend: 0x0, symName: __ZNSt3__122__compressed_pair_elemImLi0ELb0EEC2B7v160006IivEEOT_, symObjAddr: 0xB10, symBinAddr: 0x100002890, symSize: 0x20 }
  - { offsetInCU: 0xE788, offset: 0x29F34, size: 0x8, addend: 0x0, symName: __ZNSt3__122__compressed_pair_elemINS_9allocatorIPNS_16__hash_node_baseIPNS_11__hash_nodeINS_17__hash_value_typeINS_12basic_stringIcNS_11char_traitsIcEENS1_IcEEEENS_6vectorIP5StateNS1_ISC_EEEEEEPvEEEEEELi1ELb1EEC2B7v160006ENS_18__default_init_tagE, symObjAddr: 0xB30, symBinAddr: 0x1000028B0, symSize: 0x20 }
  - { offsetInCU: 0xE7BA, offset: 0x29F66, size: 0x8, addend: 0x0, symName: __ZNSt3__19allocatorIPNS_16__hash_node_baseIPNS_11__hash_nodeINS_17__hash_value_typeINS_12basic_stringIcNS_11char_traitsIcEENS0_IcEEEENS_6vectorIP5StateNS0_ISB_EEEEEEPvEEEEEC2B7v160006Ev, symObjAddr: 0xB50, symBinAddr: 0x1000028D0, symSize: 0x20 }
  - { offsetInCU: 0xE7E2, offset: 0x29F8E, size: 0x8, addend: 0x0, symName: __ZNSt3__116__non_trivial_ifILb1ENS_9allocatorIPNS_16__hash_node_baseIPNS_11__hash_nodeINS_17__hash_value_typeINS_12basic_stringIcNS_11char_traitsIcEENS1_IcEEEENS_6vectorIP5StateNS1_ISC_EEEEEEPvEEEEEEEC2B7v160006Ev, symObjAddr: 0xB70, symBinAddr: 0x1000028F0, symSize: 0x10 }
  - { offsetInCU: 0xE80A, offset: 0x29FB6, size: 0x8, addend: 0x0, symName: __ZNSt3__117__compressed_pairINS_16__hash_node_baseIPNS_11__hash_nodeINS_17__hash_value_typeINS_12basic_stringIcNS_11char_traitsIcEENS_9allocatorIcEEEENS_6vectorIP5StateNS7_ISC_EEEEEEPvEEEENS7_ISH_EEEC2B7v160006ILb1EvEEv, symObjAddr: 0xB80, symBinAddr: 0x100002900, symSize: 0x30 }
  - { offsetInCU: 0xE83D, offset: 0x29FE9, size: 0x8, addend: 0x0, symName: __ZNSt3__122__compressed_pair_elemINS_16__hash_node_baseIPNS_11__hash_nodeINS_17__hash_value_typeINS_12basic_stringIcNS_11char_traitsIcEENS_9allocatorIcEEEENS_6vectorIP5StateNS7_ISC_EEEEEEPvEEEELi0ELb0EEC2B7v160006ENS_16__value_init_tagE, symObjAddr: 0xBB0, symBinAddr: 0x100002930, symSize: 0x20 }
  - { offsetInCU: 0xE86F, offset: 0x2A01B, size: 0x8, addend: 0x0, symName: __ZNSt3__122__compressed_pair_elemINS_9allocatorINS_11__hash_nodeINS_17__hash_value_typeINS_12basic_stringIcNS_11char_traitsIcEENS1_IcEEEENS_6vectorIP5StateNS1_ISB_EEEEEEPvEEEELi1ELb1EEC2B7v160006ENS_16__value_init_tagE, symObjAddr: 0xBD0, symBinAddr: 0x100002950, symSize: 0x20 }
  - { offsetInCU: 0xE8A1, offset: 0x2A04D, size: 0x8, addend: 0x0, symName: __ZNSt3__116__hash_node_baseIPNS_11__hash_nodeINS_17__hash_value_typeINS_12basic_stringIcNS_11char_traitsIcEENS_9allocatorIcEEEENS_6vectorIP5StateNS6_ISB_EEEEEEPvEEEC1B7v160006Ev, symObjAddr: 0xBF0, symBinAddr: 0x100002970, symSize: 0x20 }
  - { offsetInCU: 0xE8C9, offset: 0x2A075, size: 0x8, addend: 0x0, symName: __ZNSt3__116__hash_node_baseIPNS_11__hash_nodeINS_17__hash_value_typeINS_12basic_stringIcNS_11char_traitsIcEENS_9allocatorIcEEEENS_6vectorIP5StateNS6_ISB_EEEEEEPvEEEC2B7v160006Ev, symObjAddr: 0xC10, symBinAddr: 0x100002990, symSize: 0x20 }
  - { offsetInCU: 0xE8F1, offset: 0x2A09D, size: 0x8, addend: 0x0, symName: __ZNSt3__19allocatorINS_11__hash_nodeINS_17__hash_value_typeINS_12basic_stringIcNS_11char_traitsIcEENS0_IcEEEENS_6vectorIP5StateNS0_ISA_EEEEEEPvEEEC2B7v160006Ev, symObjAddr: 0xC30, symBinAddr: 0x1000029B0, symSize: 0x20 }
  - { offsetInCU: 0xE919, offset: 0x2A0C5, size: 0x8, addend: 0x0, symName: __ZNSt3__116__non_trivial_ifILb1ENS_9allocatorINS_11__hash_nodeINS_17__hash_value_typeINS_12basic_stringIcNS_11char_traitsIcEENS1_IcEEEENS_6vectorIP5StateNS1_ISB_EEEEEEPvEEEEEC2B7v160006Ev, symObjAddr: 0xC50, symBinAddr: 0x1000029D0, symSize: 0x10 }
  - { offsetInCU: 0xE941, offset: 0x2A0ED, size: 0x8, addend: 0x0, symName: __ZNSt3__117__compressed_pairImNS_22__unordered_map_hasherINS_12basic_stringIcNS_11char_traitsIcEENS_9allocatorIcEEEENS_17__hash_value_typeIS7_NS_6vectorIP5StateNS5_ISB_EEEEEENS_4hashIS7_EENS_8equal_toIS7_EELb1EEEEC2B7v160006IiNS_18__default_init_tagEEEOT_OT0_, symObjAddr: 0xC60, symBinAddr: 0x1000029E0, symSize: 0x40 }
  - { offsetInCU: 0xE997, offset: 0x2A143, size: 0x8, addend: 0x0, symName: __ZNSt3__122__compressed_pair_elemINS_22__unordered_map_hasherINS_12basic_stringIcNS_11char_traitsIcEENS_9allocatorIcEEEENS_17__hash_value_typeIS7_NS_6vectorIP5StateNS5_ISB_EEEEEENS_4hashIS7_EENS_8equal_toIS7_EELb1EEELi1ELb1EEC2B7v160006ENS_18__default_init_tagE, symObjAddr: 0xCA0, symBinAddr: 0x100002A20, symSize: 0x20 }
  - { offsetInCU: 0xE9C9, offset: 0x2A175, size: 0x8, addend: 0x0, symName: __ZNSt3__122__unordered_map_hasherINS_12basic_stringIcNS_11char_traitsIcEENS_9allocatorIcEEEENS_17__hash_value_typeIS6_NS_6vectorIP5StateNS4_ISA_EEEEEENS_4hashIS6_EENS_8equal_toIS6_EELb1EEC2B7v160006Ev, symObjAddr: 0xCC0, symBinAddr: 0x100002A40, symSize: 0x10 }
  - { offsetInCU: 0xE9F1, offset: 0x2A19D, size: 0x8, addend: 0x0, symName: __ZNSt3__117__compressed_pairIfNS_21__unordered_map_equalINS_12basic_stringIcNS_11char_traitsIcEENS_9allocatorIcEEEENS_17__hash_value_typeIS7_NS_6vectorIP5StateNS5_ISB_EEEEEENS_8equal_toIS7_EENS_4hashIS7_EELb1EEEEC2B7v160006IfNS_18__default_init_tagEEEOT_OT0_, symObjAddr: 0xCD0, symBinAddr: 0x100002A50, symSize: 0x40 }
  - { offsetInCU: 0xEA47, offset: 0x2A1F3, size: 0x8, addend: 0x0, symName: __ZNSt3__122__compressed_pair_elemIfLi0ELb0EEC2B7v160006IfvEEOT_, symObjAddr: 0xD10, symBinAddr: 0x100002A90, symSize: 0x20 }
  - { offsetInCU: 0xEA87, offset: 0x2A233, size: 0x8, addend: 0x0, symName: __ZNSt3__122__compressed_pair_elemINS_21__unordered_map_equalINS_12basic_stringIcNS_11char_traitsIcEENS_9allocatorIcEEEENS_17__hash_value_typeIS7_NS_6vectorIP5StateNS5_ISB_EEEEEENS_8equal_toIS7_EENS_4hashIS7_EELb1EEELi1ELb1EEC2B7v160006ENS_18__default_init_tagE, symObjAddr: 0xD30, symBinAddr: 0x100002AB0, symSize: 0x20 }
  - { offsetInCU: 0xEAB9, offset: 0x2A265, size: 0x8, addend: 0x0, symName: __ZNSt3__121__unordered_map_equalINS_12basic_stringIcNS_11char_traitsIcEENS_9allocatorIcEEEENS_17__hash_value_typeIS6_NS_6vectorIP5StateNS4_ISA_EEEEEENS_8equal_toIS6_EENS_4hashIS6_EELb1EEC2B7v160006Ev, symObjAddr: 0xD50, symBinAddr: 0x100002AD0, symSize: 0x10 }
  - { offsetInCU: 0xEAE1, offset: 0x2A28D, size: 0x8, addend: 0x0, symName: __ZNSt3__110unique_ptrIA_PNS_16__hash_node_baseIPNS_11__hash_nodeINS_17__hash_value_typeINS_12basic_stringIcNS_11char_traitsIcEENS_9allocatorIcEEEENS_6vectorIP5StateNS7_ISC_EEEEEEPvEEEENS_25__bucket_list_deallocatorINS7_ISK_EEEEED2B7v160006Ev, symObjAddr: 0xD60, symBinAddr: 0x100002AE0, symSize: 0x20 }
  - { offsetInCU: 0xEB09, offset: 0x2A2B5, size: 0x8, addend: 0x0, symName: __ZNSt3__110unique_ptrIA_PNS_16__hash_node_baseIPNS_11__hash_nodeINS_17__hash_value_typeINS_12basic_stringIcNS_11char_traitsIcEENS_9allocatorIcEEEENS_6vectorIP5StateNS7_ISC_EEEEEEPvEEEENS_25__bucket_list_deallocatorINS7_ISK_EEEEE5resetB7v160006EDn, symObjAddr: 0xD80, symBinAddr: 0x100002B00, symSize: 0x60 }
  - { offsetInCU: 0xEB48, offset: 0x2A2F4, size: 0x8, addend: 0x0, symName: __ZNSt3__117__compressed_pairIPPNS_16__hash_node_baseIPNS_11__hash_nodeINS_17__hash_value_typeINS_12basic_stringIcNS_11char_traitsIcEENS_9allocatorIcEEEENS_6vectorIP5StateNS7_ISC_EEEEEEPvEEEENS_25__bucket_list_deallocatorINS7_ISK_EEEEE5firstB7v160006Ev, symObjAddr: 0xDE0, symBinAddr: 0x100002B60, symSize: 0x20 }
  - { offsetInCU: 0xEB6C, offset: 0x2A318, size: 0x8, addend: 0x0, symName: __ZNSt3__117__compressed_pairIPPNS_16__hash_node_baseIPNS_11__hash_nodeINS_17__hash_value_typeINS_12basic_stringIcNS_11char_traitsIcEENS_9allocatorIcEEEENS_6vectorIP5StateNS7_ISC_EEEEEEPvEEEENS_25__bucket_list_deallocatorINS7_ISK_EEEEE6secondB7v160006Ev, symObjAddr: 0xE00, symBinAddr: 0x100002B80, symSize: 0x20 }
  - { offsetInCU: 0xEB90, offset: 0x2A33C, size: 0x8, addend: 0x0, symName: __ZNSt3__125__bucket_list_deallocatorINS_9allocatorIPNS_16__hash_node_baseIPNS_11__hash_nodeINS_17__hash_value_typeINS_12basic_stringIcNS_11char_traitsIcEENS1_IcEEEENS_6vectorIP5StateNS1_ISC_EEEEEEPvEEEEEEEclB7v160006EPSK_, symObjAddr: 0xE20, symBinAddr: 0x100002BA0, symSize: 0x50 }
  - { offsetInCU: 0xEBC3, offset: 0x2A36F, size: 0x8, addend: 0x0, symName: __ZNSt3__122__compressed_pair_elemIPPNS_16__hash_node_baseIPNS_11__hash_nodeINS_17__hash_value_typeINS_12basic_stringIcNS_11char_traitsIcEENS_9allocatorIcEEEENS_6vectorIP5StateNS7_ISC_EEEEEEPvEEEELi0ELb0EE5__getB7v160006Ev, symObjAddr: 0xE70, symBinAddr: 0x100002BF0, symSize: 0x10 }
  - { offsetInCU: 0xEBE7, offset: 0x2A393, size: 0x8, addend: 0x0, symName: __ZNSt3__122__compressed_pair_elemINS_25__bucket_list_deallocatorINS_9allocatorIPNS_16__hash_node_baseIPNS_11__hash_nodeINS_17__hash_value_typeINS_12basic_stringIcNS_11char_traitsIcEENS2_IcEEEENS_6vectorIP5StateNS2_ISD_EEEEEEPvEEEEEEEELi1ELb0EE5__getB7v160006Ev, symObjAddr: 0xE80, symBinAddr: 0x100002C00, symSize: 0x10 }
  - { offsetInCU: 0xEC0B, offset: 0x2A3B7, size: 0x8, addend: 0x0, symName: __ZNSt3__116allocator_traitsINS_9allocatorIPNS_16__hash_node_baseIPNS_11__hash_nodeINS_17__hash_value_typeINS_12basic_stringIcNS_11char_traitsIcEENS1_IcEEEENS_6vectorIP5StateNS1_ISC_EEEEEEPvEEEEEEE10deallocateB7v160006ERSL_PSK_m, symObjAddr: 0xE90, symBinAddr: 0x100002C10, symSize: 0x30 }
  - { offsetInCU: 0xEC4C, offset: 0x2A3F8, size: 0x8, addend: 0x0, symName: __ZNSt3__125__bucket_list_deallocatorINS_9allocatorIPNS_16__hash_node_baseIPNS_11__hash_nodeINS_17__hash_value_typeINS_12basic_stringIcNS_11char_traitsIcEENS1_IcEEEENS_6vectorIP5StateNS1_ISC_EEEEEEPvEEEEEEE7__allocB7v160006Ev, symObjAddr: 0xEC0, symBinAddr: 0x100002C40, symSize: 0x20 }
  - { offsetInCU: 0xEC70, offset: 0x2A41C, size: 0x8, addend: 0x0, symName: __ZNSt3__125__bucket_list_deallocatorINS_9allocatorIPNS_16__hash_node_baseIPNS_11__hash_nodeINS_17__hash_value_typeINS_12basic_stringIcNS_11char_traitsIcEENS1_IcEEEENS_6vectorIP5StateNS1_ISC_EEEEEEPvEEEEEEE4sizeB7v160006Ev, symObjAddr: 0xEE0, symBinAddr: 0x100002C60, symSize: 0x20 }
  - { offsetInCU: 0xEC94, offset: 0x2A440, size: 0x8, addend: 0x0, symName: __ZNSt3__19allocatorIPNS_16__hash_node_baseIPNS_11__hash_nodeINS_17__hash_value_typeINS_12basic_stringIcNS_11char_traitsIcEENS0_IcEEEENS_6vectorIP5StateNS0_ISB_EEEEEEPvEEEEE10deallocateB7v160006EPSJ_m, symObjAddr: 0xF00, symBinAddr: 0x100002C80, symSize: 0x70 }
  - { offsetInCU: 0xECD4, offset: 0x2A480, size: 0x8, addend: 0x0, symName: __ZNSt3__117__compressed_pairImNS_9allocatorIPNS_16__hash_node_baseIPNS_11__hash_nodeINS_17__hash_value_typeINS_12basic_stringIcNS_11char_traitsIcEENS1_IcEEEENS_6vectorIP5StateNS1_ISC_EEEEEEPvEEEEEEE6secondB7v160006Ev, symObjAddr: 0xFF0, symBinAddr: 0x100002D60, symSize: 0x20 }
  - { offsetInCU: 0xECF8, offset: 0x2A4A4, size: 0x8, addend: 0x0, symName: __ZNSt3__122__compressed_pair_elemINS_9allocatorIPNS_16__hash_node_baseIPNS_11__hash_nodeINS_17__hash_value_typeINS_12basic_stringIcNS_11char_traitsIcEENS1_IcEEEENS_6vectorIP5StateNS1_ISC_EEEEEEPvEEEEEELi1ELb1EE5__getB7v160006Ev, symObjAddr: 0x1010, symBinAddr: 0x100002D80, symSize: 0x10 }
  - { offsetInCU: 0xED1C, offset: 0x2A4C8, size: 0x8, addend: 0x0, symName: __ZNSt3__117__compressed_pairImNS_9allocatorIPNS_16__hash_node_baseIPNS_11__hash_nodeINS_17__hash_value_typeINS_12basic_stringIcNS_11char_traitsIcEENS1_IcEEEENS_6vectorIP5StateNS1_ISC_EEEEEEPvEEEEEEE5firstB7v160006Ev, symObjAddr: 0x1020, symBinAddr: 0x100002D90, symSize: 0x20 }
  - { offsetInCU: 0xED40, offset: 0x2A4EC, size: 0x8, addend: 0x0, symName: __ZNSt3__122__compressed_pair_elemImLi0ELb0EE5__getB7v160006Ev, symObjAddr: 0x1040, symBinAddr: 0x100002DB0, symSize: 0x10 }
  - { offsetInCU: 0xED64, offset: 0x2A510, size: 0x8, addend: 0x0, symName: __ZNSt3__112__hash_tableINS_17__hash_value_typeINS_12basic_stringIcNS_11char_traitsIcEENS_9allocatorIcEEEENS_6vectorIP5StateNS5_ISA_EEEEEENS_22__unordered_map_hasherIS7_SD_NS_4hashIS7_EENS_8equal_toIS7_EELb1EEENS_21__unordered_map_equalIS7_SD_SI_SG_Lb1EEENS5_ISD_EEED2Ev, symObjAddr: 0x1050, symBinAddr: 0x100002DC0, symSize: 0x80 }
  - { offsetInCU: 0xED8F, offset: 0x2A53B, size: 0x8, addend: 0x0, symName: __ZNSt3__112__hash_tableINS_17__hash_value_typeINS_12basic_stringIcNS_11char_traitsIcEENS_9allocatorIcEEEENS_6vectorIP5StateNS5_ISA_EEEEEENS_22__unordered_map_hasherIS7_SD_NS_4hashIS7_EENS_8equal_toIS7_EELb1EEENS_21__unordered_map_equalIS7_SD_SI_SG_Lb1EEENS5_ISD_EEE17__deallocate_nodeEPNS_16__hash_node_baseIPNS_11__hash_nodeISD_PvEEEE, symObjAddr: 0x10D0, symBinAddr: 0x100002E40, symSize: 0xB0 }
  - { offsetInCU: 0xEDF7, offset: 0x2A5A3, size: 0x8, addend: 0x0, symName: __ZNSt3__117__compressed_pairINS_16__hash_node_baseIPNS_11__hash_nodeINS_17__hash_value_typeINS_12basic_stringIcNS_11char_traitsIcEENS_9allocatorIcEEEENS_6vectorIP5StateNS7_ISC_EEEEEEPvEEEENS7_ISH_EEE5firstB7v160006Ev, symObjAddr: 0x1180, symBinAddr: 0x100002EF0, symSize: 0x20 }
  - { offsetInCU: 0xEE1B, offset: 0x2A5C7, size: 0x8, addend: 0x0, symName: __ZNSt3__112__hash_tableINS_17__hash_value_typeINS_12basic_stringIcNS_11char_traitsIcEENS_9allocatorIcEEEENS_6vectorIP5StateNS5_ISA_EEEEEENS_22__unordered_map_hasherIS7_SD_NS_4hashIS7_EENS_8equal_toIS7_EELb1EEENS_21__unordered_map_equalIS7_SD_SI_SG_Lb1EEENS5_ISD_EEE12__node_allocB7v160006Ev, symObjAddr: 0x11B0, symBinAddr: 0x100002F20, symSize: 0x20 }
  - { offsetInCU: 0xEE3F, offset: 0x2A5EB, size: 0x8, addend: 0x0, symName: __ZNSt3__116__hash_node_baseIPNS_11__hash_nodeINS_17__hash_value_typeINS_12basic_stringIcNS_11char_traitsIcEENS_9allocatorIcEEEENS_6vectorIP5StateNS6_ISB_EEEEEEPvEEE8__upcastB7v160006Ev, symObjAddr: 0x11D0, symBinAddr: 0x100002F40, symSize: 0x20 }
  - { offsetInCU: 0xEE63, offset: 0x2A60F, size: 0x8, addend: 0x0, symName: __ZNSt3__116allocator_traitsINS_9allocatorINS_11__hash_nodeINS_17__hash_value_typeINS_12basic_stringIcNS_11char_traitsIcEENS1_IcEEEENS_6vectorIP5StateNS1_ISB_EEEEEEPvEEEEE7destroyB7v160006INS_4pairIKS8_SD_EEvvEEvRSH_PT_, symObjAddr: 0x11F0, symBinAddr: 0x100002F60, symSize: 0x20 }
  - { offsetInCU: 0xEE9D, offset: 0x2A649, size: 0x8, addend: 0x0, symName: __ZNSt3__122__hash_key_value_typesINS_17__hash_value_typeINS_12basic_stringIcNS_11char_traitsIcEENS_9allocatorIcEEEENS_6vectorIP5StateNS5_ISA_EEEEEEE9__get_ptrB7v160006ERSD_, symObjAddr: 0x1210, symBinAddr: 0x100002F80, symSize: 0x20 }
  - { offsetInCU: 0xEEBF, offset: 0x2A66B, size: 0x8, addend: 0x0, symName: __ZNSt3__116allocator_traitsINS_9allocatorINS_11__hash_nodeINS_17__hash_value_typeINS_12basic_stringIcNS_11char_traitsIcEENS1_IcEEEENS_6vectorIP5StateNS1_ISB_EEEEEEPvEEEEE10deallocateB7v160006ERSH_PSG_m, symObjAddr: 0x1230, symBinAddr: 0x100002FA0, symSize: 0x30 }
  - { offsetInCU: 0xEF00, offset: 0x2A6AC, size: 0x8, addend: 0x0, symName: __ZNSt3__117__compressed_pairINS_16__hash_node_baseIPNS_11__hash_nodeINS_17__hash_value_typeINS_12basic_stringIcNS_11char_traitsIcEENS_9allocatorIcEEEENS_6vectorIP5StateNS7_ISC_EEEEEEPvEEEENS7_ISH_EEE6secondB7v160006Ev, symObjAddr: 0x1260, symBinAddr: 0x100002FD0, symSize: 0x20 }
  - { offsetInCU: 0xEF24, offset: 0x2A6D0, size: 0x8, addend: 0x0, symName: __ZNSt3__122__compressed_pair_elemINS_9allocatorINS_11__hash_nodeINS_17__hash_value_typeINS_12basic_stringIcNS_11char_traitsIcEENS1_IcEEEENS_6vectorIP5StateNS1_ISB_EEEEEEPvEEEELi1ELb1EE5__getB7v160006Ev, symObjAddr: 0x1280, symBinAddr: 0x100002FF0, symSize: 0x10 }
  - { offsetInCU: 0xEF48, offset: 0x2A6F4, size: 0x8, addend: 0x0, symName: __ZNSt3__114pointer_traitsIPNS_16__hash_node_baseIPNS_11__hash_nodeINS_17__hash_value_typeINS_12basic_stringIcNS_11char_traitsIcEENS_9allocatorIcEEEENS_6vectorIP5StateNS7_ISC_EEEEEEPvEEEEE10pointer_toB7v160006ERSJ_, symObjAddr: 0x1290, symBinAddr: 0x100003000, symSize: 0x10 }
  - { offsetInCU: 0xEF6A, offset: 0x2A716, size: 0x8, addend: 0x0, symName: __ZNSt3__14pairIKNS_12basic_stringIcNS_11char_traitsIcEENS_9allocatorIcEEEENS_6vectorIP5StateNS4_ISA_EEEEED1Ev, symObjAddr: 0x12A0, symBinAddr: 0x100003010, symSize: 0x20 }
  - { offsetInCU: 0xEF94, offset: 0x2A740, size: 0x8, addend: 0x0, symName: __ZNSt3__14pairIKNS_12basic_stringIcNS_11char_traitsIcEENS_9allocatorIcEEEENS_6vectorIP5StateNS4_ISA_EEEEED2Ev, symObjAddr: 0x12C0, symBinAddr: 0x100003030, symSize: 0x70 }
  - { offsetInCU: 0xEFBE, offset: 0x2A76A, size: 0x8, addend: 0x0, symName: __ZNSt3__117__hash_value_typeINS_12basic_stringIcNS_11char_traitsIcEENS_9allocatorIcEEEENS_6vectorIP5StateNS4_IS9_EEEEE11__get_valueB7v160006Ev, symObjAddr: 0x1330, symBinAddr: 0x1000030A0, symSize: 0x10 }
  - { offsetInCU: 0xEFE2, offset: 0x2A78E, size: 0x8, addend: 0x0, symName: __ZNSt3__19allocatorINS_11__hash_nodeINS_17__hash_value_typeINS_12basic_stringIcNS_11char_traitsIcEENS0_IcEEEENS_6vectorIP5StateNS0_ISA_EEEEEEPvEEE10deallocateB7v160006EPSF_m, symObjAddr: 0x1340, symBinAddr: 0x1000030B0, symSize: 0x70 }
  - { offsetInCU: 0xF022, offset: 0x2A7CE, size: 0x8, addend: 0x0, symName: __ZNSt3__122__compressed_pair_elemINS_16__hash_node_baseIPNS_11__hash_nodeINS_17__hash_value_typeINS_12basic_stringIcNS_11char_traitsIcEENS_9allocatorIcEEEENS_6vectorIP5StateNS7_ISC_EEEEEEPvEEEELi0ELb0EE5__getB7v160006Ev, symObjAddr: 0x13B0, symBinAddr: 0x100003120, symSize: 0x10 }
  - { offsetInCU: 0xF046, offset: 0x2A7F2, size: 0x8, addend: 0x0, symName: __ZNSt3__113unordered_mapINS_12basic_stringIcNS_11char_traitsIcEENS_9allocatorIcEEEENS_6vectorIP5StateNS4_IS9_EEEENS_4hashIS6_EENS_8equal_toIS6_EENS4_INS_4pairIKS6_SB_EEEEED2B7v160006Ev, symObjAddr: 0x13C0, symBinAddr: 0x100003130, symSize: 0x20 }
  - { offsetInCU: 0xF06E, offset: 0x2A81A, size: 0x8, addend: 0x0, symName: __ZNSt3__16vectorIP5StateNS_9allocatorIS2_EEED2B7v160006Ev, symObjAddr: 0x13E0, symBinAddr: 0x100003150, symSize: 0x30 }
  - { offsetInCU: 0xF096, offset: 0x2A842, size: 0x8, addend: 0x0, symName: __ZNSt3__16vectorIP5StateNS_9allocatorIS2_EEE16__destroy_vectorC1ERS5_, symObjAddr: 0x1410, symBinAddr: 0x100003180, symSize: 0x30 }
  - { offsetInCU: 0xF0CD, offset: 0x2A879, size: 0x8, addend: 0x0, symName: __ZNSt3__16vectorIP5StateNS_9allocatorIS2_EEE16__destroy_vectorclB7v160006Ev, symObjAddr: 0x1440, symBinAddr: 0x1000031B0, symSize: 0x90 }
  - { offsetInCU: 0xF0F1, offset: 0x2A89D, size: 0x8, addend: 0x0, symName: __ZNSt3__16vectorIP5StateNS_9allocatorIS2_EEE16__destroy_vectorC2ERS5_, symObjAddr: 0x14D0, symBinAddr: 0x100003240, symSize: 0x20 }
  - { offsetInCU: 0xF128, offset: 0x2A8D4, size: 0x8, addend: 0x0, symName: __ZNKSt3__16vectorIP5StateNS_9allocatorIS2_EEE17__annotate_deleteB7v160006Ev, symObjAddr: 0x14F0, symBinAddr: 0x100003260, symSize: 0xB0 }
  - { offsetInCU: 0xF14C, offset: 0x2A8F8, size: 0x8, addend: 0x0, symName: __ZNSt3__16vectorIP5StateNS_9allocatorIS2_EEE7__clearB7v160006Ev, symObjAddr: 0x15B0, symBinAddr: 0x100003320, symSize: 0x20 }
  - { offsetInCU: 0xF170, offset: 0x2A91C, size: 0x8, addend: 0x0, symName: __ZNSt3__116allocator_traitsINS_9allocatorIP5StateEEE10deallocateB7v160006ERS4_PS3_m, symObjAddr: 0x15D0, symBinAddr: 0x100003340, symSize: 0x30 }
  - { offsetInCU: 0xF1B1, offset: 0x2A95D, size: 0x8, addend: 0x0, symName: __ZNSt3__16vectorIP5StateNS_9allocatorIS2_EEE7__allocB7v160006Ev, symObjAddr: 0x1600, symBinAddr: 0x100003370, symSize: 0x20 }
  - { offsetInCU: 0xF1D5, offset: 0x2A981, size: 0x8, addend: 0x0, symName: __ZNKSt3__16vectorIP5StateNS_9allocatorIS2_EEE8capacityB7v160006Ev, symObjAddr: 0x1620, symBinAddr: 0x100003390, symSize: 0x30 }
  - { offsetInCU: 0xF1F9, offset: 0x2A9A5, size: 0x8, addend: 0x0, symName: __ZNKSt3__16vectorIP5StateNS_9allocatorIS2_EEE31__annotate_contiguous_containerB7v160006EPKvS7_S7_S7_, symObjAddr: 0x1650, symBinAddr: 0x1000033C0, symSize: 0x20 }
  - { offsetInCU: 0xF24D, offset: 0x2A9F9, size: 0x8, addend: 0x0, symName: __ZNKSt3__16vectorIP5StateNS_9allocatorIS2_EEE4dataB7v160006Ev, symObjAddr: 0x1670, symBinAddr: 0x1000033E0, symSize: 0x20 }
  - { offsetInCU: 0xF271, offset: 0x2AA1D, size: 0x8, addend: 0x0, symName: __ZNSt3__16vectorIP5StateNS_9allocatorIS2_EEE22__base_destruct_at_endB7v160006EPS2_, symObjAddr: 0x16A0, symBinAddr: 0x100003410, symSize: 0x90 }
  - { offsetInCU: 0xF2B3, offset: 0x2AA5F, size: 0x8, addend: 0x0, symName: __ZNSt3__116allocator_traitsINS_9allocatorIP5StateEEE7destroyB7v160006IS3_vEEvRS4_PT_, symObjAddr: 0x1730, symBinAddr: 0x1000034A0, symSize: 0x30 }
  - { offsetInCU: 0xF2EF, offset: 0x2AA9B, size: 0x8, addend: 0x0, symName: __ZNSt3__19allocatorIP5StateE7destroyB7v160006EPS2_, symObjAddr: 0x1760, symBinAddr: 0x1000034D0, symSize: 0x10 }
  - { offsetInCU: 0xF321, offset: 0x2AACD, size: 0x8, addend: 0x0, symName: __ZNSt3__19allocatorIP5StateE10deallocateB7v160006EPS2_m, symObjAddr: 0x1770, symBinAddr: 0x1000034E0, symSize: 0x70 }
  - { offsetInCU: 0xF361, offset: 0x2AB0D, size: 0x8, addend: 0x0, symName: __ZNSt3__117__compressed_pairIPP5StateNS_9allocatorIS2_EEE6secondB7v160006Ev, symObjAddr: 0x17E0, symBinAddr: 0x100003550, symSize: 0x20 }
  - { offsetInCU: 0xF385, offset: 0x2AB31, size: 0x8, addend: 0x0, symName: __ZNSt3__122__compressed_pair_elemINS_9allocatorIP5StateEELi1ELb1EE5__getB7v160006Ev, symObjAddr: 0x1800, symBinAddr: 0x100003570, symSize: 0x10 }
  - { offsetInCU: 0xF3A9, offset: 0x2AB55, size: 0x8, addend: 0x0, symName: __ZNKSt3__16vectorIP5StateNS_9allocatorIS2_EEE9__end_capB7v160006Ev, symObjAddr: 0x1810, symBinAddr: 0x100003580, symSize: 0x20 }
  - { offsetInCU: 0xF3CD, offset: 0x2AB79, size: 0x8, addend: 0x0, symName: __ZNKSt3__117__compressed_pairIPP5StateNS_9allocatorIS2_EEE5firstB7v160006Ev, symObjAddr: 0x1830, symBinAddr: 0x1000035A0, symSize: 0x20 }
  - { offsetInCU: 0xF3F1, offset: 0x2AB9D, size: 0x8, addend: 0x0, symName: __ZNKSt3__122__compressed_pair_elemIPP5StateLi0ELb0EE5__getB7v160006Ev, symObjAddr: 0x1850, symBinAddr: 0x1000035C0, symSize: 0x10 }
  - { offsetInCU: 0xF415, offset: 0x2ABC1, size: 0x8, addend: 0x0, symName: __ZNSt3__113unordered_mapINS_12basic_stringIcNS_11char_traitsIcEENS_9allocatorIcEEEENS_6vectorIP5StateNS4_IS9_EEEENS_4hashIS6_EENS_8equal_toIS6_EENS4_INS_4pairIKS6_SB_EEEEE4findB7v160006ERSH_, symObjAddr: 0x1860, symBinAddr: 0x1000035D0, symSize: 0x40 }
  - { offsetInCU: 0xF448, offset: 0x2ABF4, size: 0x8, addend: 0x0, symName: __ZNSt3__113unordered_mapINS_12basic_stringIcNS_11char_traitsIcEENS_9allocatorIcEEEENS_6vectorIP5StateNS4_IS9_EEEENS_4hashIS6_EENS_8equal_toIS6_EENS4_INS_4pairIKS6_SB_EEEEE3endB7v160006Ev, symObjAddr: 0x18D0, symBinAddr: 0x100003640, symSize: 0x30 }
  - { offsetInCU: 0xF46C, offset: 0x2AC18, size: 0x8, addend: 0x0, symName: __ZNKSt3__119__hash_map_iteratorINS_15__hash_iteratorIPNS_11__hash_nodeINS_17__hash_value_typeINS_12basic_stringIcNS_11char_traitsIcEENS_9allocatorIcEEEENS_6vectorIP5StateNS7_ISC_EEEEEEPvEEEEEptB7v160006Ev, symObjAddr: 0x1900, symBinAddr: 0x100003670, symSize: 0x30 }
  - { offsetInCU: 0xF490, offset: 0x2AC3C, size: 0x8, addend: 0x0, symName: __ZNSt3__113unordered_mapINS_12basic_stringIcNS_11char_traitsIcEENS_9allocatorIcEEEENS_6vectorIP5StateNS4_IS9_EEEENS_4hashIS6_EENS_8equal_toIS6_EENS4_INS_4pairIKS6_SB_EEEEE25__construct_node_with_keyERSH_, symObjAddr: 0x1930, symBinAddr: 0x1000036A0, symSize: 0x140 }
  - { offsetInCU: 0xF4E4, offset: 0x2AC90, size: 0x8, addend: 0x0, symName: __ZNSt3__112__hash_tableINS_17__hash_value_typeINS_12basic_stringIcNS_11char_traitsIcEENS_9allocatorIcEEEENS_6vectorIP5StateNS5_ISA_EEEEEENS_22__unordered_map_hasherIS7_SD_NS_4hashIS7_EENS_8equal_toIS7_EELb1EEENS_21__unordered_map_equalIS7_SD_SI_SG_Lb1EEENS5_ISD_EEE20__node_insert_uniqueEPNS_11__hash_nodeISD_PvEE, symObjAddr: 0x1A70, symBinAddr: 0x1000037E0, symSize: 0xC0 }
  - { offsetInCU: 0xF537, offset: 0x2ACE3, size: 0x8, addend: 0x0, symName: __ZNKSt3__110unique_ptrINS_11__hash_nodeINS_17__hash_value_typeINS_12basic_stringIcNS_11char_traitsIcEENS_9allocatorIcEEEENS_6vectorIP5StateNS6_ISB_EEEEEEPvEENS_26__hash_map_node_destructorINS6_ISG_EEEEE3getB7v160006Ev, symObjAddr: 0x1B30, symBinAddr: 0x1000038A0, symSize: 0x20 }
  - { offsetInCU: 0xF55B, offset: 0x2AD07, size: 0x8, addend: 0x0, symName: __ZNSt3__14pairINS_19__hash_map_iteratorINS_15__hash_iteratorIPNS_11__hash_nodeINS_17__hash_value_typeINS_12basic_stringIcNS_11char_traitsIcEENS_9allocatorIcEEEENS_6vectorIP5StateNS8_ISD_EEEEEEPvEEEEEEbEC1B7v160006ISK_bEERKNS0_IT_T0_EE, symObjAddr: 0x1B50, symBinAddr: 0x1000038C0, symSize: 0x30 }
  - { offsetInCU: 0xF5A3, offset: 0x2AD4F, size: 0x8, addend: 0x0, symName: __ZNSt3__110unique_ptrINS_11__hash_nodeINS_17__hash_value_typeINS_12basic_stringIcNS_11char_traitsIcEENS_9allocatorIcEEEENS_6vectorIP5StateNS6_ISB_EEEEEEPvEENS_26__hash_map_node_destructorINS6_ISG_EEEEE7releaseB7v160006Ev, symObjAddr: 0x1B80, symBinAddr: 0x1000038F0, symSize: 0x40 }
  - { offsetInCU: 0xF5D6, offset: 0x2AD82, size: 0x8, addend: 0x0, symName: __ZNSt3__110unique_ptrINS_11__hash_nodeINS_17__hash_value_typeINS_12basic_stringIcNS_11char_traitsIcEENS_9allocatorIcEEEENS_6vectorIP5StateNS6_ISB_EEEEEEPvEENS_26__hash_map_node_destructorINS6_ISG_EEEEED1B7v160006Ev, symObjAddr: 0x1BC0, symBinAddr: 0x100003930, symSize: 0x20 }
  - { offsetInCU: 0xF5FE, offset: 0x2ADAA, size: 0x8, addend: 0x0, symName: __ZNSt3__112__hash_tableINS_17__hash_value_typeINS_12basic_stringIcNS_11char_traitsIcEENS_9allocatorIcEEEENS_6vectorIP5StateNS5_ISA_EEEEEENS_22__unordered_map_hasherIS7_SD_NS_4hashIS7_EENS_8equal_toIS7_EELb1EEENS_21__unordered_map_equalIS7_SD_SI_SG_Lb1EEENS5_ISD_EEE4findIS7_EENS_15__hash_iteratorIPNS_11__hash_nodeISD_PvEEEERKT_, symObjAddr: 0x1BE0, symBinAddr: 0x100003950, symSize: 0x180 }
  - { offsetInCU: 0xF686, offset: 0x2AE32, size: 0x8, addend: 0x0, symName: __ZNSt3__119__hash_map_iteratorINS_15__hash_iteratorIPNS_11__hash_nodeINS_17__hash_value_typeINS_12basic_stringIcNS_11char_traitsIcEENS_9allocatorIcEEEENS_6vectorIP5StateNS7_ISC_EEEEEEPvEEEEEC1B7v160006ESJ_, symObjAddr: 0x1D60, symBinAddr: 0x100003AD0, symSize: 0x30 }
  - { offsetInCU: 0xF6BD, offset: 0x2AE69, size: 0x8, addend: 0x0, symName: __ZNSt3__112__hash_tableINS_17__hash_value_typeINS_12basic_stringIcNS_11char_traitsIcEENS_9allocatorIcEEEENS_6vectorIP5StateNS5_ISA_EEEEEENS_22__unordered_map_hasherIS7_SD_NS_4hashIS7_EENS_8equal_toIS7_EELb1EEENS_21__unordered_map_equalIS7_SD_SI_SG_Lb1EEENS5_ISD_EEE13hash_functionB7v160006Ev, symObjAddr: 0x1D90, symBinAddr: 0x100003B00, symSize: 0x20 }
  - { offsetInCU: 0xF6E1, offset: 0x2AE8D, size: 0x8, addend: 0x0, symName: __ZNKSt3__122__unordered_map_hasherINS_12basic_stringIcNS_11char_traitsIcEENS_9allocatorIcEEEENS_17__hash_value_typeIS6_NS_6vectorIP5StateNS4_ISA_EEEEEENS_4hashIS6_EENS_8equal_toIS6_EELb1EEclB7v160006ERKS6_, symObjAddr: 0x1DB0, symBinAddr: 0x100003B20, symSize: 0x30 }
  - { offsetInCU: 0xF714, offset: 0x2AEC0, size: 0x8, addend: 0x0, symName: __ZNKSt3__112__hash_tableINS_17__hash_value_typeINS_12basic_stringIcNS_11char_traitsIcEENS_9allocatorIcEEEENS_6vectorIP5StateNS5_ISA_EEEEEENS_22__unordered_map_hasherIS7_SD_NS_4hashIS7_EENS_8equal_toIS7_EELb1EEENS_21__unordered_map_equalIS7_SD_SI_SG_Lb1EEENS5_ISD_EEE12bucket_countB7v160006Ev, symObjAddr: 0x1DE0, symBinAddr: 0x100003B50, symSize: 0x30 }
  - { offsetInCU: 0xF738, offset: 0x2AEE4, size: 0x8, addend: 0x0, symName: __ZNKSt3__110unique_ptrIA_PNS_16__hash_node_baseIPNS_11__hash_nodeINS_17__hash_value_typeINS_12basic_stringIcNS_11char_traitsIcEENS_9allocatorIcEEEENS_6vectorIP5StateNS7_ISC_EEEEEEPvEEEENS_25__bucket_list_deallocatorINS7_ISK_EEEEEixB7v160006Em, symObjAddr: 0x1E90, symBinAddr: 0x100003C00, symSize: 0x30 }
  - { offsetInCU: 0xF76B, offset: 0x2AF17, size: 0x8, addend: 0x0, symName: __ZNKSt3__116__hash_node_baseIPNS_11__hash_nodeINS_17__hash_value_typeINS_12basic_stringIcNS_11char_traitsIcEENS_9allocatorIcEEEENS_6vectorIP5StateNS6_ISB_EEEEEEPvEEE6__hashB7v160006Ev, symObjAddr: 0x1EC0, symBinAddr: 0x100003C30, symSize: 0x20 }
  - { offsetInCU: 0xF78F, offset: 0x2AF3B, size: 0x8, addend: 0x0, symName: __ZNSt3__112__hash_tableINS_17__hash_value_typeINS_12basic_stringIcNS_11char_traitsIcEENS_9allocatorIcEEEENS_6vectorIP5StateNS5_ISA_EEEEEENS_22__unordered_map_hasherIS7_SD_NS_4hashIS7_EENS_8equal_toIS7_EELb1EEENS_21__unordered_map_equalIS7_SD_SI_SG_Lb1EEENS5_ISD_EEE6key_eqB7v160006Ev, symObjAddr: 0x1EE0, symBinAddr: 0x100003C50, symSize: 0x20 }
  - { offsetInCU: 0xF7B3, offset: 0x2AF5F, size: 0x8, addend: 0x0, symName: __ZNKSt3__121__unordered_map_equalINS_12basic_stringIcNS_11char_traitsIcEENS_9allocatorIcEEEENS_17__hash_value_typeIS6_NS_6vectorIP5StateNS4_ISA_EEEEEENS_8equal_toIS6_EENS_4hashIS6_EELb1EEclB7v160006ERKSD_RKS6_, symObjAddr: 0x1F00, symBinAddr: 0x100003C70, symSize: 0x40 }
  - { offsetInCU: 0xF7F5, offset: 0x2AFA1, size: 0x8, addend: 0x0, symName: __ZNSt3__115__hash_iteratorIPNS_11__hash_nodeINS_17__hash_value_typeINS_12basic_stringIcNS_11char_traitsIcEENS_9allocatorIcEEEENS_6vectorIP5StateNS6_ISB_EEEEEEPvEEEC1B7v160006EPNS_16__hash_node_baseISH_EEPKv, symObjAddr: 0x1F40, symBinAddr: 0x100003CB0, symSize: 0x30 }
  - { offsetInCU: 0xF83B, offset: 0x2AFE7, size: 0x8, addend: 0x0, symName: __ZNSt3__112__hash_tableINS_17__hash_value_typeINS_12basic_stringIcNS_11char_traitsIcEENS_9allocatorIcEEEENS_6vectorIP5StateNS5_ISA_EEEEEENS_22__unordered_map_hasherIS7_SD_NS_4hashIS7_EENS_8equal_toIS7_EELb1EEENS_21__unordered_map_equalIS7_SD_SI_SG_Lb1EEENS5_ISD_EEE3endEv, symObjAddr: 0x1F70, symBinAddr: 0x100003CE0, symSize: 0x30 }
  - { offsetInCU: 0xF861, offset: 0x2B00D, size: 0x8, addend: 0x0, symName: __ZNSt3__117__compressed_pairImNS_22__unordered_map_hasherINS_12basic_stringIcNS_11char_traitsIcEENS_9allocatorIcEEEENS_17__hash_value_typeIS7_NS_6vectorIP5StateNS5_ISB_EEEEEENS_4hashIS7_EENS_8equal_toIS7_EELb1EEEE6secondB7v160006Ev, symObjAddr: 0x1FA0, symBinAddr: 0x100003D10, symSize: 0x20 }
  - { offsetInCU: 0xF885, offset: 0x2B031, size: 0x8, addend: 0x0, symName: __ZNSt3__122__compressed_pair_elemINS_22__unordered_map_hasherINS_12basic_stringIcNS_11char_traitsIcEENS_9allocatorIcEEEENS_17__hash_value_typeIS7_NS_6vectorIP5StateNS5_ISB_EEEEEENS_4hashIS7_EENS_8equal_toIS7_EELb1EEELi1ELb1EE5__getB7v160006Ev, symObjAddr: 0x1FC0, symBinAddr: 0x100003D30, symSize: 0x10 }
  - { offsetInCU: 0xF8A9, offset: 0x2B055, size: 0x8, addend: 0x0, symName: __ZNKSt3__113__string_hashIcNS_9allocatorIcEEEclERKNS_12basic_stringIcNS_11char_traitsIcEES2_EE, symObjAddr: 0x1FD0, symBinAddr: 0x100003D40, symSize: 0x70 }
  - { offsetInCU: 0xF8DC, offset: 0x2B088, size: 0x8, addend: 0x0, symName: __ZNSt3__121__murmur2_or_cityhashImLm64EEclEPKvm, symObjAddr: 0x2100, symBinAddr: 0x100003DF0, symSize: 0x3D0 }
  - { offsetInCU: 0xF97A, offset: 0x2B126, size: 0x8, addend: 0x0, symName: __ZNSt3__121__murmur2_or_cityhashImLm64EE18__hash_len_0_to_16EPKcm, symObjAddr: 0x24D0, symBinAddr: 0x1000041C0, symSize: 0x180 }
  - { offsetInCU: 0xFA5B, offset: 0x2B207, size: 0x8, addend: 0x0, symName: __ZNSt3__121__murmur2_or_cityhashImLm64EE19__hash_len_17_to_32EPKcm, symObjAddr: 0x2650, symBinAddr: 0x100004340, symSize: 0x100 }
  - { offsetInCU: 0xFAC7, offset: 0x2B273, size: 0x8, addend: 0x0, symName: __ZNSt3__121__murmur2_or_cityhashImLm64EE19__hash_len_33_to_64EPKcm, symObjAddr: 0x2750, symBinAddr: 0x100004440, symSize: 0x260 }
  - { offsetInCU: 0xFB81, offset: 0x2B32D, size: 0x8, addend: 0x0, symName: __ZNSt3__121__murmur2_or_cityhashImLm64EE13__hash_len_16Emm, symObjAddr: 0x29D0, symBinAddr: 0x1000046C0, symSize: 0x90 }
  - { offsetInCU: 0xFBDE, offset: 0x2B38A, size: 0x8, addend: 0x0, symName: __ZNSt3__121__murmur2_or_cityhashImLm64EE29__weak_hash_len_32_with_seedsEPKcmm, symObjAddr: 0x2A60, symBinAddr: 0x100004750, symSize: 0x90 }
  - { offsetInCU: 0xFC1C, offset: 0x2B3C8, size: 0x8, addend: 0x0, symName: __ZNSt3__121__murmur2_or_cityhashImLm64EE8__rotateEmi, symObjAddr: 0x2AF0, symBinAddr: 0x1000047E0, symSize: 0x50 }
  - { offsetInCU: 0xFC4C, offset: 0x2B3F8, size: 0x8, addend: 0x0, symName: __ZNSt3__14pairImmEaSB7v160006ERKS1_, symObjAddr: 0x2B40, symBinAddr: 0x100004830, symSize: 0x30 }
  - { offsetInCU: 0xFC7E, offset: 0x2B42A, size: 0x8, addend: 0x0, symName: __ZNSt3__121__murmur2_or_cityhashImLm64EE11__shift_mixEm, symObjAddr: 0x2BB0, symBinAddr: 0x1000048A0, symSize: 0x20 }
  - { offsetInCU: 0xFCA0, offset: 0x2B44C, size: 0x8, addend: 0x0, symName: __ZNSt3__121__murmur2_or_cityhashImLm64EE22__rotate_by_at_least_1Emi, symObjAddr: 0x2BD0, symBinAddr: 0x1000048C0, symSize: 0x30 }
  - { offsetInCU: 0xFCD0, offset: 0x2B47C, size: 0x8, addend: 0x0, symName: __ZNSt3__121__murmur2_or_cityhashImLm64EE29__weak_hash_len_32_with_seedsEmmmmmm, symObjAddr: 0x2C20, symBinAddr: 0x100004910, symSize: 0xD0 }
  - { offsetInCU: 0xFD48, offset: 0x2B4F4, size: 0x8, addend: 0x0, symName: __ZNSt3__14pairImmEC1B7v160006ERKmS3_, symObjAddr: 0x2CF0, symBinAddr: 0x1000049E0, symSize: 0x30 }
  - { offsetInCU: 0xFD8C, offset: 0x2B538, size: 0x8, addend: 0x0, symName: __ZNSt3__14pairImmEC2B7v160006ERKmS3_, symObjAddr: 0x2D20, symBinAddr: 0x100004A10, symSize: 0x30 }
  - { offsetInCU: 0xFDD0, offset: 0x2B57C, size: 0x8, addend: 0x0, symName: __ZNKSt3__110unique_ptrIA_PNS_16__hash_node_baseIPNS_11__hash_nodeINS_17__hash_value_typeINS_12basic_stringIcNS_11char_traitsIcEENS_9allocatorIcEEEENS_6vectorIP5StateNS7_ISC_EEEEEEPvEEEENS_25__bucket_list_deallocatorINS7_ISK_EEEEE11get_deleterB7v160006Ev, symObjAddr: 0x2EF0, symBinAddr: 0x100004A40, symSize: 0x20 }
  - { offsetInCU: 0xFDF4, offset: 0x2B5A0, size: 0x8, addend: 0x0, symName: __ZNKSt3__125__bucket_list_deallocatorINS_9allocatorIPNS_16__hash_node_baseIPNS_11__hash_nodeINS_17__hash_value_typeINS_12basic_stringIcNS_11char_traitsIcEENS1_IcEEEENS_6vectorIP5StateNS1_ISC_EEEEEEPvEEEEEEE4sizeB7v160006Ev, symObjAddr: 0x2F10, symBinAddr: 0x100004A60, symSize: 0x20 }
  - { offsetInCU: 0xFE18, offset: 0x2B5C4, size: 0x8, addend: 0x0, symName: __ZNKSt3__117__compressed_pairIPPNS_16__hash_node_baseIPNS_11__hash_nodeINS_17__hash_value_typeINS_12basic_stringIcNS_11char_traitsIcEENS_9allocatorIcEEEENS_6vectorIP5StateNS7_ISC_EEEEEEPvEEEENS_25__bucket_list_deallocatorINS7_ISK_EEEEE6secondB7v160006Ev, symObjAddr: 0x2F30, symBinAddr: 0x100004A80, symSize: 0x20 }
  - { offsetInCU: 0xFE3C, offset: 0x2B5E8, size: 0x8, addend: 0x0, symName: __ZNKSt3__122__compressed_pair_elemINS_25__bucket_list_deallocatorINS_9allocatorIPNS_16__hash_node_baseIPNS_11__hash_nodeINS_17__hash_value_typeINS_12basic_stringIcNS_11char_traitsIcEENS2_IcEEEENS_6vectorIP5StateNS2_ISD_EEEEEEPvEEEEEEEELi1ELb0EE5__getB7v160006Ev, symObjAddr: 0x2F50, symBinAddr: 0x100004AA0, symSize: 0x10 }
  - { offsetInCU: 0xFE60, offset: 0x2B60C, size: 0x8, addend: 0x0, symName: __ZNKSt3__117__compressed_pairImNS_9allocatorIPNS_16__hash_node_baseIPNS_11__hash_nodeINS_17__hash_value_typeINS_12basic_stringIcNS_11char_traitsIcEENS1_IcEEEENS_6vectorIP5StateNS1_ISC_EEEEEEPvEEEEEEE5firstB7v160006Ev, symObjAddr: 0x2F60, symBinAddr: 0x100004AB0, symSize: 0x20 }
  - { offsetInCU: 0xFE84, offset: 0x2B630, size: 0x8, addend: 0x0, symName: __ZNKSt3__122__compressed_pair_elemImLi0ELb0EE5__getB7v160006Ev, symObjAddr: 0x2F80, symBinAddr: 0x100004AD0, symSize: 0x10 }
  - { offsetInCU: 0xFEA8, offset: 0x2B654, size: 0x8, addend: 0x0, symName: __ZNKSt3__117__compressed_pairIPPNS_16__hash_node_baseIPNS_11__hash_nodeINS_17__hash_value_typeINS_12basic_stringIcNS_11char_traitsIcEENS_9allocatorIcEEEENS_6vectorIP5StateNS7_ISC_EEEEEEPvEEEENS_25__bucket_list_deallocatorINS7_ISK_EEEEE5firstB7v160006Ev, symObjAddr: 0x2F90, symBinAddr: 0x100004AE0, symSize: 0x20 }
  - { offsetInCU: 0xFECC, offset: 0x2B678, size: 0x8, addend: 0x0, symName: __ZNKSt3__122__compressed_pair_elemIPPNS_16__hash_node_baseIPNS_11__hash_nodeINS_17__hash_value_typeINS_12basic_stringIcNS_11char_traitsIcEENS_9allocatorIcEEEENS_6vectorIP5StateNS7_ISC_EEEEEEPvEEEELi0ELb0EE5__getB7v160006Ev, symObjAddr: 0x2FB0, symBinAddr: 0x100004B00, symSize: 0x10 }
  - { offsetInCU: 0xFEF0, offset: 0x2B69C, size: 0x8, addend: 0x0, symName: __ZNSt3__117__compressed_pairIfNS_21__unordered_map_equalINS_12basic_stringIcNS_11char_traitsIcEENS_9allocatorIcEEEENS_17__hash_value_typeIS7_NS_6vectorIP5StateNS5_ISB_EEEEEENS_8equal_toIS7_EENS_4hashIS7_EELb1EEEE6secondB7v160006Ev, symObjAddr: 0x2FC0, symBinAddr: 0x100004B10, symSize: 0x20 }
  - { offsetInCU: 0xFF14, offset: 0x2B6C0, size: 0x8, addend: 0x0, symName: __ZNSt3__122__compressed_pair_elemINS_21__unordered_map_equalINS_12basic_stringIcNS_11char_traitsIcEENS_9allocatorIcEEEENS_17__hash_value_typeIS7_NS_6vectorIP5StateNS5_ISB_EEEEEENS_8equal_toIS7_EENS_4hashIS7_EELb1EEELi1ELb1EE5__getB7v160006Ev, symObjAddr: 0x2FE0, symBinAddr: 0x100004B30, symSize: 0x10 }
  - { offsetInCU: 0xFF38, offset: 0x2B6E4, size: 0x8, addend: 0x0, symName: __ZNKSt3__18equal_toINS_12basic_stringIcNS_11char_traitsIcEENS_9allocatorIcEEEEEclB7v160006ERKS6_S9_, symObjAddr: 0x2FF0, symBinAddr: 0x100004B40, symSize: 0x30 }
  - { offsetInCU: 0xFF7A, offset: 0x2B726, size: 0x8, addend: 0x0, symName: __ZNKSt3__117__hash_value_typeINS_12basic_stringIcNS_11char_traitsIcEENS_9allocatorIcEEEENS_6vectorIP5StateNS4_IS9_EEEEE11__get_valueB7v160006Ev, symObjAddr: 0x3020, symBinAddr: 0x100004B70, symSize: 0x10 }
  - { offsetInCU: 0xFF9E, offset: 0x2B74A, size: 0x8, addend: 0x0, symName: __ZNSt3__111char_traitsIcE7compareEPKcS3_m, symObjAddr: 0x3140, symBinAddr: 0x100004C90, symSize: 0x70 }
  - { offsetInCU: 0xFFDC, offset: 0x2B788, size: 0x8, addend: 0x0, symName: __ZNSt3__115__hash_iteratorIPNS_11__hash_nodeINS_17__hash_value_typeINS_12basic_stringIcNS_11char_traitsIcEENS_9allocatorIcEEEENS_6vectorIP5StateNS6_ISB_EEEEEEPvEEEC2B7v160006EPNS_16__hash_node_baseISH_EEPKv, symObjAddr: 0x31E0, symBinAddr: 0x100004D30, symSize: 0x20 }
  - { offsetInCU: 0x10022, offset: 0x2B7CE, size: 0x8, addend: 0x0, symName: __ZNSt3__119__hash_map_iteratorINS_15__hash_iteratorIPNS_11__hash_nodeINS_17__hash_value_typeINS_12basic_stringIcNS_11char_traitsIcEENS_9allocatorIcEEEENS_6vectorIP5StateNS7_ISC_EEEEEEPvEEEEEC2B7v160006ESJ_, symObjAddr: 0x3200, symBinAddr: 0x100004D50, symSize: 0x20 }
  - { offsetInCU: 0x10059, offset: 0x2B805, size: 0x8, addend: 0x0, symName: __ZNSt3__114pointer_traitsIPNS_4pairIKNS_12basic_stringIcNS_11char_traitsIcEENS_9allocatorIcEEEENS_6vectorIP5StateNS5_ISB_EEEEEEE10pointer_toB7v160006ERSE_, symObjAddr: 0x3280, symBinAddr: 0x100004DD0, symSize: 0x10 }
  - { offsetInCU: 0x1007B, offset: 0x2B827, size: 0x8, addend: 0x0, symName: __ZNKSt3__115__hash_iteratorIPNS_11__hash_nodeINS_17__hash_value_typeINS_12basic_stringIcNS_11char_traitsIcEENS_9allocatorIcEEEENS_6vectorIP5StateNS6_ISB_EEEEEEPvEEEptB7v160006Ev, symObjAddr: 0x3290, symBinAddr: 0x100004DE0, symSize: 0x30 }
  - { offsetInCU: 0x1009F, offset: 0x2B84B, size: 0x8, addend: 0x0, symName: __ZNSt3__114pointer_traitsIPNS_17__hash_value_typeINS_12basic_stringIcNS_11char_traitsIcEENS_9allocatorIcEEEENS_6vectorIP5StateNS5_ISA_EEEEEEE10pointer_toB7v160006ERSD_, symObjAddr: 0x32C0, symBinAddr: 0x100004E10, symSize: 0x10 }
  - { offsetInCU: 0x100C1, offset: 0x2B86D, size: 0x8, addend: 0x0, symName: __ZNSt3__116allocator_traitsINS_9allocatorINS_11__hash_nodeINS_17__hash_value_typeINS_12basic_stringIcNS_11char_traitsIcEENS1_IcEEEENS_6vectorIP5StateNS1_ISB_EEEEEEPvEEEEE8allocateB7v160006ERSH_m, symObjAddr: 0x32D0, symBinAddr: 0x100004E20, symSize: 0x30 }
  - { offsetInCU: 0x100F3, offset: 0x2B89F, size: 0x8, addend: 0x0, symName: __ZNSt3__126__hash_map_node_destructorINS_9allocatorINS_11__hash_nodeINS_17__hash_value_typeINS_12basic_stringIcNS_11char_traitsIcEENS1_IcEEEENS_6vectorIP5StateNS1_ISB_EEEEEEPvEEEEEC1B7v160006ERSH_, symObjAddr: 0x3300, symBinAddr: 0x100004E50, symSize: 0x30 }
  - { offsetInCU: 0x1012F, offset: 0x2B8DB, size: 0x8, addend: 0x0, symName: __ZNSt3__110unique_ptrINS_11__hash_nodeINS_17__hash_value_typeINS_12basic_stringIcNS_11char_traitsIcEENS_9allocatorIcEEEENS_6vectorIP5StateNS6_ISB_EEEEEEPvEENS_26__hash_map_node_destructorINS6_ISG_EEEEEC1B7v160006ILb1EvEEPSG_NS_16__dependent_typeINS_27__unique_ptr_deleter_sfinaeISJ_EEXT_EE20__good_rval_ref_typeE, symObjAddr: 0x3330, symBinAddr: 0x100004E80, symSize: 0x30 }
  - { offsetInCU: 0x1017E, offset: 0x2B92A, size: 0x8, addend: 0x0, symName: __ZNSt3__116allocator_traitsINS_9allocatorINS_11__hash_nodeINS_17__hash_value_typeINS_12basic_stringIcNS_11char_traitsIcEENS1_IcEEEENS_6vectorIP5StateNS1_ISB_EEEEEEPvEEEEE9constructB7v160006IKS8_JRSK_EvEEvRSH_PT_DpOT0_, symObjAddr: 0x3360, symBinAddr: 0x100004EB0, symSize: 0x30 }
  - { offsetInCU: 0x101D4, offset: 0x2B980, size: 0x8, addend: 0x0, symName: __ZNKSt3__110unique_ptrINS_11__hash_nodeINS_17__hash_value_typeINS_12basic_stringIcNS_11char_traitsIcEENS_9allocatorIcEEEENS_6vectorIP5StateNS6_ISB_EEEEEEPvEENS_26__hash_map_node_destructorINS6_ISG_EEEEEptB7v160006Ev, symObjAddr: 0x3390, symBinAddr: 0x100004EE0, symSize: 0x20 }
  - { offsetInCU: 0x101F8, offset: 0x2B9A4, size: 0x8, addend: 0x0, symName: __ZNSt3__110unique_ptrINS_11__hash_nodeINS_17__hash_value_typeINS_12basic_stringIcNS_11char_traitsIcEENS_9allocatorIcEEEENS_6vectorIP5StateNS6_ISB_EEEEEEPvEENS_26__hash_map_node_destructorINS6_ISG_EEEEE11get_deleterB7v160006Ev, symObjAddr: 0x33B0, symBinAddr: 0x100004F00, symSize: 0x20 }
  - { offsetInCU: 0x10221, offset: 0x2B9CD, size: 0x8, addend: 0x0, symName: __ZNSt3__116allocator_traitsINS_9allocatorINS_11__hash_nodeINS_17__hash_value_typeINS_12basic_stringIcNS_11char_traitsIcEENS1_IcEEEENS_6vectorIP5StateNS1_ISB_EEEEEEPvEEEEE9constructB7v160006ISD_JEvEEvRSH_PT_DpOT0_, symObjAddr: 0x33D0, symBinAddr: 0x100004F20, symSize: 0x30 }
  - { offsetInCU: 0x10263, offset: 0x2BA0F, size: 0x8, addend: 0x0, symName: __ZNSt3__19allocatorINS_11__hash_nodeINS_17__hash_value_typeINS_12basic_stringIcNS_11char_traitsIcEENS0_IcEEEENS_6vectorIP5StateNS0_ISA_EEEEEEPvEEE8allocateB7v160006Em, symObjAddr: 0x3400, symBinAddr: 0x100004F50, symSize: 0x80 }
  - { offsetInCU: 0x1029F, offset: 0x2BA4B, size: 0x8, addend: 0x0, symName: __ZNSt3__116allocator_traitsINS_9allocatorINS_11__hash_nodeINS_17__hash_value_typeINS_12basic_stringIcNS_11char_traitsIcEENS1_IcEEEENS_6vectorIP5StateNS1_ISB_EEEEEEPvEEEEE8max_sizeB7v160006ISH_vEEmRKSH_, symObjAddr: 0x3480, symBinAddr: 0x100004FD0, symSize: 0x20 }
  - { offsetInCU: 0x102CC, offset: 0x2BA78, size: 0x8, addend: 0x0, symName: __ZNKSt3__19allocatorINS_11__hash_nodeINS_17__hash_value_typeINS_12basic_stringIcNS_11char_traitsIcEENS0_IcEEEENS_6vectorIP5StateNS0_ISA_EEEEEEPvEEE8max_sizeB7v160006Ev, symObjAddr: 0x3500, symBinAddr: 0x100004FF0, symSize: 0x20 }
  - { offsetInCU: 0x102F0, offset: 0x2BA9C, size: 0x8, addend: 0x0, symName: __ZNSt3__126__hash_map_node_destructorINS_9allocatorINS_11__hash_nodeINS_17__hash_value_typeINS_12basic_stringIcNS_11char_traitsIcEENS1_IcEEEENS_6vectorIP5StateNS1_ISB_EEEEEEPvEEEEEC2B7v160006ERSH_, symObjAddr: 0x3540, symBinAddr: 0x100005010, symSize: 0x30 }
  - { offsetInCU: 0x10327, offset: 0x2BAD3, size: 0x8, addend: 0x0, symName: __ZNSt3__110unique_ptrINS_11__hash_nodeINS_17__hash_value_typeINS_12basic_stringIcNS_11char_traitsIcEENS_9allocatorIcEEEENS_6vectorIP5StateNS6_ISB_EEEEEEPvEENS_26__hash_map_node_destructorINS6_ISG_EEEEEC2B7v160006ILb1EvEEPSG_NS_16__dependent_typeINS_27__unique_ptr_deleter_sfinaeISJ_EEXT_EE20__good_rval_ref_typeE, symObjAddr: 0x3570, symBinAddr: 0x100005040, symSize: 0x50 }
  - { offsetInCU: 0x10376, offset: 0x2BB22, size: 0x8, addend: 0x0, symName: __ZNSt3__117__compressed_pairIPNS_11__hash_nodeINS_17__hash_value_typeINS_12basic_stringIcNS_11char_traitsIcEENS_9allocatorIcEEEENS_6vectorIP5StateNS6_ISB_EEEEEEPvEENS_26__hash_map_node_destructorINS6_ISG_EEEEEC1B7v160006IRSH_SK_EEOT_OT0_, symObjAddr: 0x35C0, symBinAddr: 0x100005090, symSize: 0x30 }
  - { offsetInCU: 0x103CC, offset: 0x2BB78, size: 0x8, addend: 0x0, symName: __ZNSt3__117__compressed_pairIPNS_11__hash_nodeINS_17__hash_value_typeINS_12basic_stringIcNS_11char_traitsIcEENS_9allocatorIcEEEENS_6vectorIP5StateNS6_ISB_EEEEEEPvEENS_26__hash_map_node_destructorINS6_ISG_EEEEEC2B7v160006IRSH_SK_EEOT_OT0_, symObjAddr: 0x35F0, symBinAddr: 0x1000050C0, symSize: 0x40 }
  - { offsetInCU: 0x10422, offset: 0x2BBCE, size: 0x8, addend: 0x0, symName: __ZNSt3__122__compressed_pair_elemIPNS_11__hash_nodeINS_17__hash_value_typeINS_12basic_stringIcNS_11char_traitsIcEENS_9allocatorIcEEEENS_6vectorIP5StateNS6_ISB_EEEEEEPvEELi0ELb0EEC2B7v160006IRSH_vEEOT_, symObjAddr: 0x3630, symBinAddr: 0x100005100, symSize: 0x20 }
  - { offsetInCU: 0x10462, offset: 0x2BC0E, size: 0x8, addend: 0x0, symName: __ZNSt3__122__compressed_pair_elemINS_26__hash_map_node_destructorINS_9allocatorINS_11__hash_nodeINS_17__hash_value_typeINS_12basic_stringIcNS_11char_traitsIcEENS2_IcEEEENS_6vectorIP5StateNS2_ISC_EEEEEEPvEEEEEELi1ELb0EEC2B7v160006ISJ_vEEOT_, symObjAddr: 0x3650, symBinAddr: 0x100005120, symSize: 0x30 }
  - { offsetInCU: 0x104A2, offset: 0x2BC4E, size: 0x8, addend: 0x0, symName: __ZNSt3__19allocatorINS_11__hash_nodeINS_17__hash_value_typeINS_12basic_stringIcNS_11char_traitsIcEENS0_IcEEEENS_6vectorIP5StateNS0_ISA_EEEEEEPvEEE9constructB7v160006IKS7_JRSI_EEEvPT_DpOT0_, symObjAddr: 0x3680, symBinAddr: 0x100005150, symSize: 0x30 }
  - { offsetInCU: 0x104F6, offset: 0x2BCA2, size: 0x8, addend: 0x0, symName: __ZNKSt3__117__compressed_pairIPNS_11__hash_nodeINS_17__hash_value_typeINS_12basic_stringIcNS_11char_traitsIcEENS_9allocatorIcEEEENS_6vectorIP5StateNS6_ISB_EEEEEEPvEENS_26__hash_map_node_destructorINS6_ISG_EEEEE5firstB7v160006Ev, symObjAddr: 0x36B0, symBinAddr: 0x100005180, symSize: 0x20 }
  - { offsetInCU: 0x1051A, offset: 0x2BCC6, size: 0x8, addend: 0x0, symName: __ZNKSt3__122__compressed_pair_elemIPNS_11__hash_nodeINS_17__hash_value_typeINS_12basic_stringIcNS_11char_traitsIcEENS_9allocatorIcEEEENS_6vectorIP5StateNS6_ISB_EEEEEEPvEELi0ELb0EE5__getB7v160006Ev, symObjAddr: 0x36D0, symBinAddr: 0x1000051A0, symSize: 0x10 }
  - { offsetInCU: 0x1053E, offset: 0x2BCEA, size: 0x8, addend: 0x0, symName: __ZNSt3__117__compressed_pairIPNS_11__hash_nodeINS_17__hash_value_typeINS_12basic_stringIcNS_11char_traitsIcEENS_9allocatorIcEEEENS_6vectorIP5StateNS6_ISB_EEEEEEPvEENS_26__hash_map_node_destructorINS6_ISG_EEEEE6secondB7v160006Ev, symObjAddr: 0x36E0, symBinAddr: 0x1000051B0, symSize: 0x20 }
  - { offsetInCU: 0x10562, offset: 0x2BD0E, size: 0x8, addend: 0x0, symName: __ZNSt3__122__compressed_pair_elemINS_26__hash_map_node_destructorINS_9allocatorINS_11__hash_nodeINS_17__hash_value_typeINS_12basic_stringIcNS_11char_traitsIcEENS2_IcEEEENS_6vectorIP5StateNS2_ISC_EEEEEEPvEEEEEELi1ELb0EE5__getB7v160006Ev, symObjAddr: 0x3700, symBinAddr: 0x1000051D0, symSize: 0x10 }
  - { offsetInCU: 0x10586, offset: 0x2BD32, size: 0x8, addend: 0x0, symName: __ZNSt3__19allocatorINS_11__hash_nodeINS_17__hash_value_typeINS_12basic_stringIcNS_11char_traitsIcEENS0_IcEEEENS_6vectorIP5StateNS0_ISA_EEEEEEPvEEE9constructB7v160006ISC_JEEEvPT_DpOT0_, symObjAddr: 0x3710, symBinAddr: 0x1000051E0, symSize: 0x20 }
  - { offsetInCU: 0x105C7, offset: 0x2BD73, size: 0x8, addend: 0x0, symName: __ZNSt3__16vectorIP5StateNS_9allocatorIS2_EEEC1B7v160006Ev, symObjAddr: 0x3730, symBinAddr: 0x100005200, symSize: 0x20 }
  - { offsetInCU: 0x105EF, offset: 0x2BD9B, size: 0x8, addend: 0x0, symName: __ZNSt3__16vectorIP5StateNS_9allocatorIS2_EEEC2B7v160006Ev, symObjAddr: 0x3750, symBinAddr: 0x100005220, symSize: 0x50 }
  - { offsetInCU: 0x1061C, offset: 0x2BDC8, size: 0x8, addend: 0x0, symName: __ZNSt3__117__compressed_pairIPP5StateNS_9allocatorIS2_EEEC1B7v160006IDnNS_18__default_init_tagEEEOT_OT0_, symObjAddr: 0x37A0, symBinAddr: 0x100005270, symSize: 0x30 }
  - { offsetInCU: 0x10672, offset: 0x2BE1E, size: 0x8, addend: 0x0, symName: __ZNSt3__117__compressed_pairIPP5StateNS_9allocatorIS2_EEEC2B7v160006IDnNS_18__default_init_tagEEEOT_OT0_, symObjAddr: 0x37E0, symBinAddr: 0x1000052B0, symSize: 0x40 }
  - { offsetInCU: 0x106C8, offset: 0x2BE74, size: 0x8, addend: 0x0, symName: __ZNSt3__122__compressed_pair_elemIPP5StateLi0ELb0EEC2B7v160006IDnvEEOT_, symObjAddr: 0x3820, symBinAddr: 0x1000052F0, symSize: 0x20 }
  - { offsetInCU: 0x10708, offset: 0x2BEB4, size: 0x8, addend: 0x0, symName: __ZNSt3__122__compressed_pair_elemINS_9allocatorIP5StateEELi1ELb1EEC2B7v160006ENS_18__default_init_tagE, symObjAddr: 0x3840, symBinAddr: 0x100005310, symSize: 0x20 }
  - { offsetInCU: 0x1073A, offset: 0x2BEE6, size: 0x8, addend: 0x0, symName: __ZNSt3__19allocatorIP5StateEC2B7v160006Ev, symObjAddr: 0x3860, symBinAddr: 0x100005330, symSize: 0x20 }
  - { offsetInCU: 0x10762, offset: 0x2BF0E, size: 0x8, addend: 0x0, symName: __ZNSt3__116__non_trivial_ifILb1ENS_9allocatorIP5StateEEEC2B7v160006Ev, symObjAddr: 0x3880, symBinAddr: 0x100005350, symSize: 0x10 }
  - { offsetInCU: 0x1078A, offset: 0x2BF36, size: 0x8, addend: 0x0, symName: __ZNKSt3__122__unordered_map_hasherINS_12basic_stringIcNS_11char_traitsIcEENS_9allocatorIcEEEENS_17__hash_value_typeIS6_NS_6vectorIP5StateNS4_ISA_EEEEEENS_4hashIS6_EENS_8equal_toIS6_EELb1EEclB7v160006ERKSD_, symObjAddr: 0x3890, symBinAddr: 0x100005360, symSize: 0x40 }
  - { offsetInCU: 0x107BD, offset: 0x2BF69, size: 0x8, addend: 0x0, symName: __ZNSt3__112__hash_tableINS_17__hash_value_typeINS_12basic_stringIcNS_11char_traitsIcEENS_9allocatorIcEEEENS_6vectorIP5StateNS5_ISA_EEEEEENS_22__unordered_map_hasherIS7_SD_NS_4hashIS7_EENS_8equal_toIS7_EELb1EEENS_21__unordered_map_equalIS7_SD_SI_SG_Lb1EEENS5_ISD_EEE28__node_insert_unique_prepareB7v160006EmRSD_, symObjAddr: 0x38D0, symBinAddr: 0x1000053A0, symSize: 0x2D0 }
  - { offsetInCU: 0x1083C, offset: 0x2BFE8, size: 0x8, addend: 0x0, symName: __ZNSt3__112__hash_tableINS_17__hash_value_typeINS_12basic_stringIcNS_11char_traitsIcEENS_9allocatorIcEEEENS_6vectorIP5StateNS5_ISA_EEEEEENS_22__unordered_map_hasherIS7_SD_NS_4hashIS7_EENS_8equal_toIS7_EELb1EEENS_21__unordered_map_equalIS7_SD_SI_SG_Lb1EEENS5_ISD_EEE28__node_insert_unique_performB7v160006EPNS_11__hash_nodeISD_PvEE, symObjAddr: 0x3BA0, symBinAddr: 0x100005670, symSize: 0x140 }
  - { offsetInCU: 0x1089E, offset: 0x2C04A, size: 0x8, addend: 0x0, symName: __ZNSt3__116__hash_node_baseIPNS_11__hash_nodeINS_17__hash_value_typeINS_12basic_stringIcNS_11char_traitsIcEENS_9allocatorIcEEEENS_6vectorIP5StateNS6_ISB_EEEEEEPvEEE5__ptrB7v160006Ev, symObjAddr: 0x3CE0, symBinAddr: 0x1000057B0, symSize: 0x20 }
  - { offsetInCU: 0x108C2, offset: 0x2C06E, size: 0x8, addend: 0x0, symName: __ZNSt3__14pairINS_15__hash_iteratorIPNS_11__hash_nodeINS_17__hash_value_typeINS_12basic_stringIcNS_11char_traitsIcEENS_9allocatorIcEEEENS_6vectorIP5StateNS7_ISC_EEEEEEPvEEEEbEC1B7v160006ERKSJ_RKb, symObjAddr: 0x3D00, symBinAddr: 0x1000057D0, symSize: 0x30 }
  - { offsetInCU: 0x10906, offset: 0x2C0B2, size: 0x8, addend: 0x0, symName: __ZNKSt3__121__unordered_map_equalINS_12basic_stringIcNS_11char_traitsIcEENS_9allocatorIcEEEENS_17__hash_value_typeIS6_NS_6vectorIP5StateNS4_ISA_EEEEEENS_8equal_toIS6_EENS_4hashIS6_EELb1EEclB7v160006ERKSD_SK_, symObjAddr: 0x3D30, symBinAddr: 0x100005800, symSize: 0x50 }
  - { offsetInCU: 0x10948, offset: 0x2C0F4, size: 0x8, addend: 0x0, symName: __ZNSt3__112__hash_tableINS_17__hash_value_typeINS_12basic_stringIcNS_11char_traitsIcEENS_9allocatorIcEEEENS_6vectorIP5StateNS5_ISA_EEEEEENS_22__unordered_map_hasherIS7_SD_NS_4hashIS7_EENS_8equal_toIS7_EELb1EEENS_21__unordered_map_equalIS7_SD_SI_SG_Lb1EEENS5_ISD_EEE4sizeB7v160006Ev, symObjAddr: 0x3D80, symBinAddr: 0x100005850, symSize: 0x20 }
  - { offsetInCU: 0x1096C, offset: 0x2C118, size: 0x8, addend: 0x0, symName: __ZNSt3__112__hash_tableINS_17__hash_value_typeINS_12basic_stringIcNS_11char_traitsIcEENS_9allocatorIcEEEENS_6vectorIP5StateNS5_ISA_EEEEEENS_22__unordered_map_hasherIS7_SD_NS_4hashIS7_EENS_8equal_toIS7_EELb1EEENS_21__unordered_map_equalIS7_SD_SI_SG_Lb1EEENS5_ISD_EEE15max_load_factorB7v160006Ev, symObjAddr: 0x3DA0, symBinAddr: 0x100005870, symSize: 0x20 }
  - { offsetInCU: 0x10990, offset: 0x2C13C, size: 0x8, addend: 0x0, symName: __ZNSt3__112__hash_tableINS_17__hash_value_typeINS_12basic_stringIcNS_11char_traitsIcEENS_9allocatorIcEEEENS_6vectorIP5StateNS5_ISA_EEEEEENS_22__unordered_map_hasherIS7_SD_NS_4hashIS7_EENS_8equal_toIS7_EELb1EEENS_21__unordered_map_equalIS7_SD_SI_SG_Lb1EEENS5_ISD_EEE15__rehash_uniqueB7v160006Em, symObjAddr: 0x3DC0, symBinAddr: 0x100005890, symSize: 0x30 }
  - { offsetInCU: 0x109C2, offset: 0x2C16E, size: 0x8, addend: 0x0, symName: __Z4ceilB7v160006f, symObjAddr: 0x3E60, symBinAddr: 0x100005930, symSize: 0x20 }
  - { offsetInCU: 0x109F1, offset: 0x2C19D, size: 0x8, addend: 0x0, symName: __ZNSt3__117__compressed_pairImNS_22__unordered_map_hasherINS_12basic_stringIcNS_11char_traitsIcEENS_9allocatorIcEEEENS_17__hash_value_typeIS7_NS_6vectorIP5StateNS5_ISB_EEEEEENS_4hashIS7_EENS_8equal_toIS7_EELb1EEEE5firstB7v160006Ev, symObjAddr: 0x3E80, symBinAddr: 0x100005950, symSize: 0x20 }
  - { offsetInCU: 0x10A15, offset: 0x2C1C1, size: 0x8, addend: 0x0, symName: __ZNSt3__117__compressed_pairIfNS_21__unordered_map_equalINS_12basic_stringIcNS_11char_traitsIcEENS_9allocatorIcEEEENS_17__hash_value_typeIS7_NS_6vectorIP5StateNS5_ISB_EEEEEENS_8equal_toIS7_EENS_4hashIS7_EELb1EEEE5firstB7v160006Ev, symObjAddr: 0x3EA0, symBinAddr: 0x100005970, symSize: 0x20 }
  - { offsetInCU: 0x10A39, offset: 0x2C1E5, size: 0x8, addend: 0x0, symName: __ZNSt3__122__compressed_pair_elemIfLi0ELb0EE5__getB7v160006Ev, symObjAddr: 0x3EC0, symBinAddr: 0x100005990, symSize: 0x10 }
  - { offsetInCU: 0x10A5D, offset: 0x2C209, size: 0x8, addend: 0x0, symName: __ZNSt3__112__hash_tableINS_17__hash_value_typeINS_12basic_stringIcNS_11char_traitsIcEENS_9allocatorIcEEEENS_6vectorIP5StateNS5_ISA_EEEEEENS_22__unordered_map_hasherIS7_SD_NS_4hashIS7_EENS_8equal_toIS7_EELb1EEENS_21__unordered_map_equalIS7_SD_SI_SG_Lb1EEENS5_ISD_EEE8__rehashILb1EEEvm, symObjAddr: 0x3ED0, symBinAddr: 0x1000059A0, symSize: 0x230 }
  - { offsetInCU: 0x10AAB, offset: 0x2C257, size: 0x8, addend: 0x0, symName: __ZNSt3__112__hash_tableINS_17__hash_value_typeINS_12basic_stringIcNS_11char_traitsIcEENS_9allocatorIcEEEENS_6vectorIP5StateNS5_ISA_EEEEEENS_22__unordered_map_hasherIS7_SD_NS_4hashIS7_EENS_8equal_toIS7_EELb1EEENS_21__unordered_map_equalIS7_SD_SI_SG_Lb1EEENS5_ISD_EEE11__do_rehashILb1EEEvm, symObjAddr: 0x4100, symBinAddr: 0x100005BD0, symSize: 0x260 }
  - { offsetInCU: 0x10B8C, offset: 0x2C338, size: 0x8, addend: 0x0, symName: __ZNSt3__110unique_ptrIA_PNS_16__hash_node_baseIPNS_11__hash_nodeINS_17__hash_value_typeINS_12basic_stringIcNS_11char_traitsIcEENS_9allocatorIcEEEENS_6vectorIP5StateNS7_ISC_EEEEEEPvEEEENS_25__bucket_list_deallocatorINS7_ISK_EEEEE11get_deleterB7v160006Ev, symObjAddr: 0x43D0, symBinAddr: 0x100005EA0, symSize: 0x20 }
  - { offsetInCU: 0x10BB0, offset: 0x2C35C, size: 0x8, addend: 0x0, symName: __ZNSt3__110unique_ptrIA_PNS_16__hash_node_baseIPNS_11__hash_nodeINS_17__hash_value_typeINS_12basic_stringIcNS_11char_traitsIcEENS_9allocatorIcEEEENS_6vectorIP5StateNS7_ISC_EEEEEEPvEEEENS_25__bucket_list_deallocatorINS7_ISK_EEEEE5resetB7v160006IPSK_EENS_9enable_ifIXsr28_CheckArrayPointerConversionIT_EE5valueEvE4typeEST_, symObjAddr: 0x43F0, symBinAddr: 0x100005EC0, symSize: 0x70 }
  - { offsetInCU: 0x10BFB, offset: 0x2C3A7, size: 0x8, addend: 0x0, symName: __ZNSt3__116allocator_traitsINS_9allocatorIPNS_16__hash_node_baseIPNS_11__hash_nodeINS_17__hash_value_typeINS_12basic_stringIcNS_11char_traitsIcEENS1_IcEEEENS_6vectorIP5StateNS1_ISC_EEEEEEPvEEEEEEE8allocateB7v160006ERSL_m, symObjAddr: 0x4460, symBinAddr: 0x100005F30, symSize: 0x30 }
  - { offsetInCU: 0x10C2D, offset: 0x2C3D9, size: 0x8, addend: 0x0, symName: __ZNSt3__19allocatorIPNS_16__hash_node_baseIPNS_11__hash_nodeINS_17__hash_value_typeINS_12basic_stringIcNS_11char_traitsIcEENS0_IcEEEENS_6vectorIP5StateNS0_ISB_EEEEEEPvEEEEE8allocateB7v160006Em, symObjAddr: 0x4490, symBinAddr: 0x100005F60, symSize: 0x80 }
  - { offsetInCU: 0x10C69, offset: 0x2C415, size: 0x8, addend: 0x0, symName: __ZNSt3__116allocator_traitsINS_9allocatorIPNS_16__hash_node_baseIPNS_11__hash_nodeINS_17__hash_value_typeINS_12basic_stringIcNS_11char_traitsIcEENS1_IcEEEENS_6vectorIP5StateNS1_ISC_EEEEEEPvEEEEEEE8max_sizeB7v160006ISL_vEEmRKSL_, symObjAddr: 0x4510, symBinAddr: 0x100005FE0, symSize: 0x20 }
  - { offsetInCU: 0x10C96, offset: 0x2C442, size: 0x8, addend: 0x0, symName: __ZNKSt3__19allocatorIPNS_16__hash_node_baseIPNS_11__hash_nodeINS_17__hash_value_typeINS_12basic_stringIcNS_11char_traitsIcEENS0_IcEEEENS_6vectorIP5StateNS0_ISB_EEEEEEPvEEEEE8max_sizeB7v160006Ev, symObjAddr: 0x4530, symBinAddr: 0x100006000, symSize: 0x20 }
  - { offsetInCU: 0x10CC4, offset: 0x2C470, size: 0x8, addend: 0x0, symName: __ZNKSt3__16__lessImmEclB7v160006ERKmS3_, symObjAddr: 0x45C0, symBinAddr: 0x100006090, symSize: 0x30 }
  - { offsetInCU: 0x10D04, offset: 0x2C4B0, size: 0x8, addend: 0x0, symName: __ZNSt3__14pairINS_15__hash_iteratorIPNS_11__hash_nodeINS_17__hash_value_typeINS_12basic_stringIcNS_11char_traitsIcEENS_9allocatorIcEEEENS_6vectorIP5StateNS7_ISC_EEEEEEPvEEEEbEC2B7v160006ERKSJ_RKb, symObjAddr: 0x45F0, symBinAddr: 0x1000060C0, symSize: 0x30 }
  - { offsetInCU: 0x10D48, offset: 0x2C4F4, size: 0x8, addend: 0x0, symName: __ZNSt3__14pairINS_19__hash_map_iteratorINS_15__hash_iteratorIPNS_11__hash_nodeINS_17__hash_value_typeINS_12basic_stringIcNS_11char_traitsIcEENS_9allocatorIcEEEENS_6vectorIP5StateNS8_ISD_EEEEEEPvEEEEEEbEC2B7v160006ISK_bEERKNS0_IT_T0_EE, symObjAddr: 0x4620, symBinAddr: 0x1000060F0, symSize: 0x50 }
  - { offsetInCU: 0x10D90, offset: 0x2C53C, size: 0x8, addend: 0x0, symName: __ZNSt3__117__compressed_pairIPNS_11__hash_nodeINS_17__hash_value_typeINS_12basic_stringIcNS_11char_traitsIcEENS_9allocatorIcEEEENS_6vectorIP5StateNS6_ISB_EEEEEEPvEENS_26__hash_map_node_destructorINS6_ISG_EEEEE5firstB7v160006Ev, symObjAddr: 0x4670, symBinAddr: 0x100006140, symSize: 0x20 }
  - { offsetInCU: 0x10DB4, offset: 0x2C560, size: 0x8, addend: 0x0, symName: __ZNSt3__122__compressed_pair_elemIPNS_11__hash_nodeINS_17__hash_value_typeINS_12basic_stringIcNS_11char_traitsIcEENS_9allocatorIcEEEENS_6vectorIP5StateNS6_ISB_EEEEEEPvEELi0ELb0EE5__getB7v160006Ev, symObjAddr: 0x4690, symBinAddr: 0x100006160, symSize: 0x10 }
  - { offsetInCU: 0x10DD8, offset: 0x2C584, size: 0x8, addend: 0x0, symName: __ZNSt3__110unique_ptrINS_11__hash_nodeINS_17__hash_value_typeINS_12basic_stringIcNS_11char_traitsIcEENS_9allocatorIcEEEENS_6vectorIP5StateNS6_ISB_EEEEEEPvEENS_26__hash_map_node_destructorINS6_ISG_EEEEED2B7v160006Ev, symObjAddr: 0x46A0, symBinAddr: 0x100006170, symSize: 0x20 }
  - { offsetInCU: 0x10E00, offset: 0x2C5AC, size: 0x8, addend: 0x0, symName: __ZNSt3__110unique_ptrINS_11__hash_nodeINS_17__hash_value_typeINS_12basic_stringIcNS_11char_traitsIcEENS_9allocatorIcEEEENS_6vectorIP5StateNS6_ISB_EEEEEEPvEENS_26__hash_map_node_destructorINS6_ISG_EEEEE5resetB7v160006EPSG_, symObjAddr: 0x46C0, symBinAddr: 0x100006190, symSize: 0x70 }
  - { offsetInCU: 0x10E42, offset: 0x2C5EE, size: 0x8, addend: 0x0, symName: __ZNSt3__126__hash_map_node_destructorINS_9allocatorINS_11__hash_nodeINS_17__hash_value_typeINS_12basic_stringIcNS_11char_traitsIcEENS1_IcEEEENS_6vectorIP5StateNS1_ISB_EEEEEEPvEEEEEclB7v160006EPSG_, symObjAddr: 0x4730, symBinAddr: 0x100006200, symSize: 0xD0 }
  - { offsetInCU: 0x10E75, offset: 0x2C621, size: 0x8, addend: 0x0, symName: __ZNSt3__116allocator_traitsINS_9allocatorINS_11__hash_nodeINS_17__hash_value_typeINS_12basic_stringIcNS_11char_traitsIcEENS1_IcEEEENS_6vectorIP5StateNS1_ISB_EEEEEEPvEEEEE7destroyB7v160006ISD_vvEEvRSH_PT_, symObjAddr: 0x4800, symBinAddr: 0x1000062D0, symSize: 0x20 }
  - { offsetInCU: 0x10EAF, offset: 0x2C65B, size: 0x8, addend: 0x0, symName: __ZNSt3__116allocator_traitsINS_9allocatorINS_11__hash_nodeINS_17__hash_value_typeINS_12basic_stringIcNS_11char_traitsIcEENS1_IcEEEENS_6vectorIP5StateNS1_ISB_EEEEEEPvEEEEE7destroyB7v160006IKS8_vvEEvRSH_PT_, symObjAddr: 0x4820, symBinAddr: 0x1000062F0, symSize: 0x20 }
  - { offsetInCU: 0x10EE9, offset: 0x2C695, size: 0x8, addend: 0x0, symName: __ZNSt3__16vectorIP5StateNS_9allocatorIS2_EEE9__end_capB7v160006Ev, symObjAddr: 0x4840, symBinAddr: 0x100006310, symSize: 0x20 }
  - { offsetInCU: 0x10F0D, offset: 0x2C6B9, size: 0x8, addend: 0x0, symName: __ZNSt3__16vectorIP5StateNS_9allocatorIS2_EEE22__construct_one_at_endB7v160006IJRKS2_EEEvDpOT_, symObjAddr: 0x4860, symBinAddr: 0x100006330, symSize: 0xA0 }
  - { offsetInCU: 0x10F5A, offset: 0x2C706, size: 0x8, addend: 0x0, symName: __ZNSt3__16vectorIP5StateNS_9allocatorIS2_EEE21__push_back_slow_pathIRKS2_EEvOT_, symObjAddr: 0x4900, symBinAddr: 0x1000063D0, symSize: 0xE0 }
  - { offsetInCU: 0x10FB6, offset: 0x2C762, size: 0x8, addend: 0x0, symName: __ZNSt3__117__compressed_pairIPP5StateNS_9allocatorIS2_EEE5firstB7v160006Ev, symObjAddr: 0x49E0, symBinAddr: 0x1000064B0, symSize: 0x20 }
  - { offsetInCU: 0x10FDA, offset: 0x2C786, size: 0x8, addend: 0x0, symName: __ZNSt3__122__compressed_pair_elemIPP5StateLi0ELb0EE5__getB7v160006Ev, symObjAddr: 0x4A00, symBinAddr: 0x1000064D0, symSize: 0x10 }
  - { offsetInCU: 0x11017, offset: 0x2C7C3, size: 0x8, addend: 0x0, symName: __ZNSt3__16vectorIP5StateNS_9allocatorIS2_EEE21_ConstructTransactionC1B7v160006ERS5_m, symObjAddr: 0x4A10, symBinAddr: 0x1000064E0, symSize: 0x30 }
  - { offsetInCU: 0x1105D, offset: 0x2C809, size: 0x8, addend: 0x0, symName: __ZNSt3__116allocator_traitsINS_9allocatorIP5StateEEE9constructB7v160006IS3_JRKS3_EvEEvRS4_PT_DpOT0_, symObjAddr: 0x4A40, symBinAddr: 0x100006510, symSize: 0x30 }
  - { offsetInCU: 0x110B3, offset: 0x2C85F, size: 0x8, addend: 0x0, symName: __ZNSt3__16vectorIP5StateNS_9allocatorIS2_EEE21_ConstructTransactionD1B7v160006Ev, symObjAddr: 0x4A70, symBinAddr: 0x100006540, symSize: 0x20 }
  - { offsetInCU: 0x110DB, offset: 0x2C887, size: 0x8, addend: 0x0, symName: __ZNSt3__16vectorIP5StateNS_9allocatorIS2_EEE21_ConstructTransactionC2B7v160006ERS5_m, symObjAddr: 0x4A90, symBinAddr: 0x100006560, symSize: 0x40 }
  - { offsetInCU: 0x11121, offset: 0x2C8CD, size: 0x8, addend: 0x0, symName: __ZNSt3__19allocatorIP5StateE9constructB7v160006IS2_JRKS2_EEEvPT_DpOT0_, symObjAddr: 0x4AD0, symBinAddr: 0x1000065A0, symSize: 0x20 }
  - { offsetInCU: 0x11175, offset: 0x2C921, size: 0x8, addend: 0x0, symName: __ZNSt3__16vectorIP5StateNS_9allocatorIS2_EEE21_ConstructTransactionD2B7v160006Ev, symObjAddr: 0x4AF0, symBinAddr: 0x1000065C0, symSize: 0x20 }
  - { offsetInCU: 0x1119D, offset: 0x2C949, size: 0x8, addend: 0x0, symName: __ZNKSt3__16vectorIP5StateNS_9allocatorIS2_EEE11__recommendB7v160006Em, symObjAddr: 0x4B10, symBinAddr: 0x1000065E0, symSize: 0xA0 }
  - { offsetInCU: 0x111F0, offset: 0x2C99C, size: 0x8, addend: 0x0, symName: __ZNSt3__114__split_bufferIP5StateRNS_9allocatorIS2_EEEC1EmmS5_, symObjAddr: 0x4BB0, symBinAddr: 0x100006680, symSize: 0x40 }
  - { offsetInCU: 0x11245, offset: 0x2C9F1, size: 0x8, addend: 0x0, symName: __ZNSt3__114__split_bufferIP5StateRNS_9allocatorIS2_EEED1Ev, symObjAddr: 0x4D20, symBinAddr: 0x1000067F0, symSize: 0x20 }
  - { offsetInCU: 0x11270, offset: 0x2CA1C, size: 0x8, addend: 0x0, symName: __ZNKSt3__16vectorIP5StateNS_9allocatorIS2_EEE8max_sizeEv, symObjAddr: 0x4D40, symBinAddr: 0x100006810, symSize: 0x70 }
  - { offsetInCU: 0x11296, offset: 0x2CA42, size: 0x8, addend: 0x0, symName: __ZNKSt3__16vectorIP5StateNS_9allocatorIS2_EEE20__throw_length_errorB7v160006Ev, symObjAddr: 0x4DB0, symBinAddr: 0x100006880, symSize: 0x20 }
  - { offsetInCU: 0x112C4, offset: 0x2CA70, size: 0x8, addend: 0x0, symName: __ZNSt3__116allocator_traitsINS_9allocatorIP5StateEEE8max_sizeB7v160006IS4_vEEmRKS4_, symObjAddr: 0x4E00, symBinAddr: 0x1000068D0, symSize: 0x20 }
  - { offsetInCU: 0x112F1, offset: 0x2CA9D, size: 0x8, addend: 0x0, symName: __ZNKSt3__16vectorIP5StateNS_9allocatorIS2_EEE7__allocB7v160006Ev, symObjAddr: 0x4E20, symBinAddr: 0x1000068F0, symSize: 0x20 }
  - { offsetInCU: 0x11315, offset: 0x2CAC1, size: 0x8, addend: 0x0, symName: __ZNSt3__114numeric_limitsIlE3maxB7v160006Ev, symObjAddr: 0x4E40, symBinAddr: 0x100006910, symSize: 0x10 }
  - { offsetInCU: 0x11329, offset: 0x2CAD5, size: 0x8, addend: 0x0, symName: __ZNKSt3__19allocatorIP5StateE8max_sizeB7v160006Ev, symObjAddr: 0x4EA0, symBinAddr: 0x100006970, symSize: 0x20 }
  - { offsetInCU: 0x1134D, offset: 0x2CAF9, size: 0x8, addend: 0x0, symName: __ZNKSt3__117__compressed_pairIPP5StateNS_9allocatorIS2_EEE6secondB7v160006Ev, symObjAddr: 0x4EC0, symBinAddr: 0x100006990, symSize: 0x20 }
  - { offsetInCU: 0x11371, offset: 0x2CB1D, size: 0x8, addend: 0x0, symName: __ZNKSt3__122__compressed_pair_elemINS_9allocatorIP5StateEELi1ELb1EE5__getB7v160006Ev, symObjAddr: 0x4EE0, symBinAddr: 0x1000069B0, symSize: 0x10 }
  - { offsetInCU: 0x11395, offset: 0x2CB41, size: 0x8, addend: 0x0, symName: __ZNSt3__123__libcpp_numeric_limitsIlLb1EE3maxB7v160006Ev, symObjAddr: 0x4EF0, symBinAddr: 0x1000069C0, symSize: 0x10 }
  - { offsetInCU: 0x113A9, offset: 0x2CB55, size: 0x8, addend: 0x0, symName: __ZNSt12length_errorC1B7v160006EPKc, symObjAddr: 0x4F70, symBinAddr: 0x100006A40, symSize: 0x30 }
  - { offsetInCU: 0x113DF, offset: 0x2CB8B, size: 0x8, addend: 0x0, symName: __ZNSt12length_errorC2B7v160006EPKc, symObjAddr: 0x4FA0, symBinAddr: 0x100006A70, symSize: 0x40 }
  - { offsetInCU: 0x11415, offset: 0x2CBC1, size: 0x8, addend: 0x0, symName: __ZNSt3__114__split_bufferIP5StateRNS_9allocatorIS2_EEEC2EmmS5_, symObjAddr: 0x4FE0, symBinAddr: 0x100006AB0, symSize: 0xD0 }
  - { offsetInCU: 0x11487, offset: 0x2CC33, size: 0x8, addend: 0x0, symName: __ZNSt3__117__compressed_pairIPP5StateRNS_9allocatorIS2_EEEC1B7v160006IDnS6_EEOT_OT0_, symObjAddr: 0x50B0, symBinAddr: 0x100006B80, symSize: 0x30 }
  - { offsetInCU: 0x114DD, offset: 0x2CC89, size: 0x8, addend: 0x0, symName: __ZNSt3__114__split_bufferIP5StateRNS_9allocatorIS2_EEE7__allocB7v160006Ev, symObjAddr: 0x5120, symBinAddr: 0x100006BF0, symSize: 0x20 }
  - { offsetInCU: 0x11501, offset: 0x2CCAD, size: 0x8, addend: 0x0, symName: __ZNSt3__114__split_bufferIP5StateRNS_9allocatorIS2_EEE9__end_capB7v160006Ev, symObjAddr: 0x5140, symBinAddr: 0x100006C10, symSize: 0x20 }
  - { offsetInCU: 0x11525, offset: 0x2CCD1, size: 0x8, addend: 0x0, symName: __ZNSt3__117__compressed_pairIPP5StateRNS_9allocatorIS2_EEEC2B7v160006IDnS6_EEOT_OT0_, symObjAddr: 0x5160, symBinAddr: 0x100006C30, symSize: 0x40 }
  - { offsetInCU: 0x1157B, offset: 0x2CD27, size: 0x8, addend: 0x0, symName: __ZNSt3__122__compressed_pair_elemIRNS_9allocatorIP5StateEELi1ELb0EEC2B7v160006IS5_vEEOT_, symObjAddr: 0x51A0, symBinAddr: 0x100006C70, symSize: 0x20 }
  - { offsetInCU: 0x115BB, offset: 0x2CD67, size: 0x8, addend: 0x0, symName: __ZNSt3__19allocatorIP5StateE8allocateB7v160006Em, symObjAddr: 0x51C0, symBinAddr: 0x100006C90, symSize: 0x80 }
  - { offsetInCU: 0x115ED, offset: 0x2CD99, size: 0x8, addend: 0x0, symName: __ZNSt3__117__compressed_pairIPP5StateRNS_9allocatorIS2_EEE6secondB7v160006Ev, symObjAddr: 0x5240, symBinAddr: 0x100006D10, symSize: 0x20 }
  - { offsetInCU: 0x11611, offset: 0x2CDBD, size: 0x8, addend: 0x0, symName: __ZNSt3__122__compressed_pair_elemIRNS_9allocatorIP5StateEELi1ELb0EE5__getB7v160006Ev, symObjAddr: 0x5260, symBinAddr: 0x100006D30, symSize: 0x20 }
  - { offsetInCU: 0x11635, offset: 0x2CDE1, size: 0x8, addend: 0x0, symName: __ZNSt3__117__compressed_pairIPP5StateRNS_9allocatorIS2_EEE5firstB7v160006Ev, symObjAddr: 0x5280, symBinAddr: 0x100006D50, symSize: 0x20 }
  - { offsetInCU: 0x11659, offset: 0x2CE05, size: 0x8, addend: 0x0, symName: __ZNSt3__116reverse_iteratorIPP5StateEC1B7v160006ES3_, symObjAddr: 0x53C0, symBinAddr: 0x100006E90, symSize: 0x30 }
  - { offsetInCU: 0x1168F, offset: 0x2CE3B, size: 0x8, addend: 0x0, symName: __ZNKSt3__116reverse_iteratorIPP5StateE4baseB7v160006Ev, symObjAddr: 0x53F0, symBinAddr: 0x100006EC0, symSize: 0x20 }
  - { offsetInCU: 0x116B3, offset: 0x2CE5F, size: 0x8, addend: 0x0, symName: __ZNKSt3__16vectorIP5StateNS_9allocatorIS2_EEE14__annotate_newB7v160006Em, symObjAddr: 0x5450, symBinAddr: 0x100006F20, symSize: 0xB0 }
  - { offsetInCU: 0x116E6, offset: 0x2CE92, size: 0x8, addend: 0x0, symName: __ZNKSt3__116reverse_iteratorIPP5StateEdeB7v160006Ev, symObjAddr: 0x55A0, symBinAddr: 0x100007070, symSize: 0x30 }
  - { offsetInCU: 0x11719, offset: 0x2CEC5, size: 0x8, addend: 0x0, symName: __ZNSt3__116reverse_iteratorIPP5StateEppB7v160006Ev, symObjAddr: 0x55D0, symBinAddr: 0x1000070A0, symSize: 0x20 }
  - { offsetInCU: 0x11742, offset: 0x2CEEE, size: 0x8, addend: 0x0, symName: __ZNSt3__119__to_address_helperINS_16reverse_iteratorIPP5StateEEvE6__callB7v160006ERKS5_, symObjAddr: 0x5670, symBinAddr: 0x100007140, symSize: 0x50 }
  - { offsetInCU: 0x11764, offset: 0x2CF10, size: 0x8, addend: 0x0, symName: __ZNKSt3__116reverse_iteratorIPP5StateEptB7v160006Ev, symObjAddr: 0x56C0, symBinAddr: 0x100007190, symSize: 0x20 }
  - { offsetInCU: 0x117AB, offset: 0x2CF57, size: 0x8, addend: 0x0, symName: __ZNKSt3__111__move_loopINS_17_ClassicAlgPolicyEEclB7v160006INS_16reverse_iteratorIPP5StateEES8_S8_EENS_4pairIT_T1_EESA_T0_SB_, symObjAddr: 0x5AC0, symBinAddr: 0x100007590, symSize: 0xA0 }
  - { offsetInCU: 0x11819, offset: 0x2CFC5, size: 0x8, addend: 0x0, symName: __ZNSt3__18_IterOpsINS_17_ClassicAlgPolicyEE11__iter_moveB7v160006IRNS_16reverse_iteratorIPP5StateEEEENS_9enable_ifIXsr12is_referenceIDTdeclsr3stdE7declvalIRT_EEEEE5valueEDTclsr3stdE4movedeclsr3stdE7declvalISC_EEEEE4typeEOSB_, symObjAddr: 0x5CB0, symBinAddr: 0x100007780, symSize: 0x20 }
  - { offsetInCU: 0x11844, offset: 0x2CFF0, size: 0x8, addend: 0x0, symName: __ZNSt3__18_IterOpsINS_17_ClassicAlgPolicyEE25__validate_iter_referenceB7v160006IRNS_16reverse_iteratorIPP5StateEEEEvv, symObjAddr: 0x5CD0, symBinAddr: 0x1000077A0, symSize: 0x10 }
  - { offsetInCU: 0x11861, offset: 0x2D00D, size: 0x8, addend: 0x0, symName: __ZNSt3__118__unwrap_iter_implINS_16reverse_iteratorIPP5StateEELb0EE8__unwrapB7v160006ES5_, symObjAddr: 0x5CE0, symBinAddr: 0x1000077B0, symSize: 0x20 }
  - { offsetInCU: 0x11883, offset: 0x2D02F, size: 0x8, addend: 0x0, symName: __ZNSt3__14pairINS_16reverse_iteratorIPP5StateEES5_EC1B7v160006ERKS5_S8_, symObjAddr: 0x5D00, symBinAddr: 0x1000077D0, symSize: 0x30 }
  - { offsetInCU: 0x118C7, offset: 0x2D073, size: 0x8, addend: 0x0, symName: __ZNSt3__14pairINS_16reverse_iteratorIPP5StateEES5_EC2B7v160006ERKS5_S8_, symObjAddr: 0x5D30, symBinAddr: 0x100007800, symSize: 0x40 }
  - { offsetInCU: 0x1190B, offset: 0x2D0B7, size: 0x8, addend: 0x0, symName: __ZNSt3__118__unwrap_iter_implINS_16reverse_iteratorIPP5StateEELb0EE8__rewrapB7v160006ES5_S5_, symObjAddr: 0x5D70, symBinAddr: 0x100007840, symSize: 0x30 }
  - { offsetInCU: 0x11937, offset: 0x2D0E3, size: 0x8, addend: 0x0, symName: __ZNSt3__116reverse_iteratorIPP5StateEC2B7v160006ES3_, symObjAddr: 0x5DA0, symBinAddr: 0x100007870, symSize: 0x30 }
  - { offsetInCU: 0x1196D, offset: 0x2D119, size: 0x8, addend: 0x0, symName: __ZNSt3__114__split_bufferIP5StateRNS_9allocatorIS2_EEED2Ev, symObjAddr: 0x5DD0, symBinAddr: 0x1000078A0, symSize: 0x60 }
  - { offsetInCU: 0x11998, offset: 0x2D144, size: 0x8, addend: 0x0, symName: __ZNSt3__114__split_bufferIP5StateRNS_9allocatorIS2_EEE5clearB7v160006Ev, symObjAddr: 0x5E30, symBinAddr: 0x100007900, symSize: 0x20 }
  - { offsetInCU: 0x119BC, offset: 0x2D168, size: 0x8, addend: 0x0, symName: __ZNKSt3__114__split_bufferIP5StateRNS_9allocatorIS2_EEE8capacityB7v160006Ev, symObjAddr: 0x5E50, symBinAddr: 0x100007920, symSize: 0x30 }
  - { offsetInCU: 0x119E0, offset: 0x2D18C, size: 0x8, addend: 0x0, symName: __ZNSt3__114__split_bufferIP5StateRNS_9allocatorIS2_EEE17__destruct_at_endB7v160006EPS2_, symObjAddr: 0x5E80, symBinAddr: 0x100007950, symSize: 0x30 }
  - { offsetInCU: 0x11A12, offset: 0x2D1BE, size: 0x8, addend: 0x0, symName: __ZNSt3__114__split_bufferIP5StateRNS_9allocatorIS2_EEE17__destruct_at_endB7v160006EPS2_NS_17integral_constantIbLb0EEE, symObjAddr: 0x5EB0, symBinAddr: 0x100007980, symSize: 0x80 }
  - { offsetInCU: 0x11A50, offset: 0x2D1FC, size: 0x8, addend: 0x0, symName: __ZNKSt3__114__split_bufferIP5StateRNS_9allocatorIS2_EEE9__end_capB7v160006Ev, symObjAddr: 0x5F30, symBinAddr: 0x100007A00, symSize: 0x20 }
  - { offsetInCU: 0x11A74, offset: 0x2D220, size: 0x8, addend: 0x0, symName: __ZNKSt3__117__compressed_pairIPP5StateRNS_9allocatorIS2_EEE5firstB7v160006Ev, symObjAddr: 0x5F50, symBinAddr: 0x100007A20, symSize: 0x20 }
  - { offsetInCU: 0x79A4, offset: 0x34D45, size: 0x8, addend: 0x0, symName: __ZNSt3__17advanceB7v160006IPP5StatemmvEEvRT_T0_, symObjAddr: 0xADF0, symBinAddr: 0x10000CF20, symSize: 0x50 }
  - { offsetInCU: 0x8D4D, offset: 0x360EE, size: 0x8, addend: 0x0, symName: __ZNSt3__1eqB7v160006ERKNS_19__hash_map_iteratorINS_15__hash_iteratorIPNS_11__hash_nodeINS_17__hash_value_typeINS_12basic_stringIcNS_11char_traitsIcEENS_9allocatorIcEEEENS_6vectorIP5StateNS7_ISC_EEEEEEPvEEEEEESM_, symObjAddr: 0xC10, symBinAddr: 0x100008530, symSize: 0x30 }
  - { offsetInCU: 0x8D8A, offset: 0x3612B, size: 0x8, addend: 0x0, symName: __ZNSt3__1eqB7v160006ERKNS_21__hash_const_iteratorIPNS_11__hash_nodeINS_12basic_stringIcNS_11char_traitsIcEENS_9allocatorIcEEEEPvEEEESD_, symObjAddr: 0xD90, symBinAddr: 0x100008600, symSize: 0x30 }
  - { offsetInCU: 0x8DC7, offset: 0x36168, size: 0x8, addend: 0x0, symName: __ZNSt3__119__debug_db_insert_cB7v160006INS_13unordered_setINS_12basic_stringIcNS_11char_traitsIcEENS_9allocatorIcEEEENS_4hashIS7_EENS_8equal_toIS7_EENS5_IS7_EEEEEEvPT_, symObjAddr: 0x1B30, symBinAddr: 0x100008720, symSize: 0x10 }
  - { offsetInCU: 0x8DF8, offset: 0x36199, size: 0x8, addend: 0x0, symName: __ZNSt3__118__debug_db_erase_cB7v160006INS_12__hash_tableINS_12basic_stringIcNS_11char_traitsIcEENS_9allocatorIcEEEENS_4hashIS7_EENS_8equal_toIS7_EENS5_IS7_EEEEEEvPT_, symObjAddr: 0x2400, symBinAddr: 0x100008FF0, symSize: 0x10 }
  - { offsetInCU: 0x8E5C, offset: 0x361FD, size: 0x8, addend: 0x0, symName: __ZNSt3__1neB7v160006ERKNS_25__hash_map_const_iteratorINS_21__hash_const_iteratorIPNS_11__hash_nodeINS_17__hash_value_typeINS_12basic_stringIcNS_11char_traitsIcEENS_9allocatorIcEEEENS_6vectorIP5StateNS7_ISC_EEEEEEPvEEEEEESM_, symObjAddr: 0x2B00, symBinAddr: 0x100009470, symSize: 0x30 }
  - { offsetInCU: 0x8E99, offset: 0x3623A, size: 0x8, addend: 0x0, symName: __ZNSt3__1neB7v160006ERKNS_21__hash_const_iteratorIPNS_11__hash_nodeINS_17__hash_value_typeINS_12basic_stringIcNS_11char_traitsIcEENS_9allocatorIcEEEENS_6vectorIP5StateNS6_ISB_EEEEEEPvEEEESK_, symObjAddr: 0x2BE0, symBinAddr: 0x100009550, symSize: 0x30 }
  - { offsetInCU: 0x8ED6, offset: 0x36277, size: 0x8, addend: 0x0, symName: __ZNSt3__1eqB7v160006ERKNS_21__hash_const_iteratorIPNS_11__hash_nodeINS_17__hash_value_typeINS_12basic_stringIcNS_11char_traitsIcEENS_9allocatorIcEEEENS_6vectorIP5StateNS6_ISB_EEEEEEPvEEEESK_, symObjAddr: 0x2C10, symBinAddr: 0x100009580, symSize: 0x30 }
  - { offsetInCU: 0x8F64, offset: 0x36305, size: 0x8, addend: 0x0, symName: __ZNSt3__1neB7v160006ERKNS_21__hash_const_iteratorIPNS_11__hash_nodeINS_12basic_stringIcNS_11char_traitsIcEENS_9allocatorIcEEEEPvEEEESD_, symObjAddr: 0x5C90, symBinAddr: 0x10000A980, symSize: 0x30 }
  - { offsetInCU: 0x8FA1, offset: 0x36342, size: 0x8, addend: 0x0, symName: __ZNSt3__125__debug_db_invalidate_allB7v160006INS_12__hash_tableINS_12basic_stringIcNS_11char_traitsIcEENS_9allocatorIcEEEENS_4hashIS7_EENS_8equal_toIS7_EENS5_IS7_EEEEEEvPT_, symObjAddr: 0x6950, symBinAddr: 0x10000B640, symSize: 0x10 }
  - { offsetInCU: 0x8FF0, offset: 0x36391, size: 0x8, addend: 0x0, symName: __ZNSt3__18distanceB7v160006IPP5StateEENS_15iterator_traitsIT_E15difference_typeES5_S5_, symObjAddr: 0xADC0, symBinAddr: 0x10000CEF0, symSize: 0x30 }
  - { offsetInCU: 0x9033, offset: 0x363D4, size: 0x8, addend: 0x0, symName: __ZNSt3__14copyB7v160006IPP5StateS3_EET0_T_S5_S4_, symObjAddr: 0xAE40, symBinAddr: 0x10000CF70, symSize: 0x40 }
  - { offsetInCU: 0x908D, offset: 0x3642E, size: 0x8, addend: 0x0, symName: __ZNSt3__110__distanceB7v160006IPP5StateEENS_15iterator_traitsIT_E15difference_typeES5_S5_NS_26random_access_iterator_tagE, symObjAddr: 0xB0C0, symBinAddr: 0x10000D1F0, symSize: 0x20 }
  - { offsetInCU: 0x90DA, offset: 0x3647B, size: 0x8, addend: 0x0, symName: __ZNSt3__121__convert_to_integralB7v160006Em, symObjAddr: 0xB0E0, symBinAddr: 0x10000D210, symSize: 0x10 }
  - { offsetInCU: 0x9106, offset: 0x364A7, size: 0x8, addend: 0x0, symName: __ZNSt3__19__advanceB7v160006IPP5StateEEvRT_NS_15iterator_traitsIS4_E15difference_typeENS_26random_access_iterator_tagE, symObjAddr: 0xB0F0, symBinAddr: 0x10000D220, symSize: 0x20 }
  - { offsetInCU: 0x914F, offset: 0x364F0, size: 0x8, addend: 0x0, symName: __ZNSt3__16__copyB7v160006INS_17_ClassicAlgPolicyEPP5StateS4_S4_EENS_4pairIT0_T2_EES6_T1_S7_, symObjAddr: 0xB110, symBinAddr: 0x10000D240, symSize: 0x40 }
  - { offsetInCU: 0x91BB, offset: 0x3655C, size: 0x8, addend: 0x0, symName: __ZNSt3__123__dispatch_copy_or_moveB7v160006INS_17_ClassicAlgPolicyENS_11__copy_loopIS1_EENS_14__copy_trivialEPP5StateS7_S7_EENS_4pairIT2_T4_EES9_T3_SA_, symObjAddr: 0xB150, symBinAddr: 0x10000D280, symSize: 0x60 }
  - { offsetInCU: 0x9239, offset: 0x365DA, size: 0x8, addend: 0x0, symName: __ZNSt3__121__unwrap_and_dispatchB7v160006INS_10__overloadINS_11__copy_loopINS_17_ClassicAlgPolicyEEENS_14__copy_trivialEEEPP5StateS9_S9_Li0EEENS_4pairIT0_T2_EESB_T1_SC_, symObjAddr: 0xB1B0, symBinAddr: 0x10000D2E0, symSize: 0xB0 }
  - { offsetInCU: 0x92CB, offset: 0x3666C, size: 0x8, addend: 0x0, symName: __ZNSt3__114__unwrap_rangeB7v160006IPP5StateS3_EENS_4pairIT0_S5_EET_S7_, symObjAddr: 0xB260, symBinAddr: 0x10000D390, symSize: 0x50 }
  - { offsetInCU: 0x940B, offset: 0x367AC, size: 0x8, addend: 0x0, symName: __ZNSt3__113__unwrap_iterB7v160006IPP5StateNS_18__unwrap_iter_implIS3_Lb1EEELi0EEEDTclsrT0_8__unwrapclsr3stdE7declvalIT_EEEES7_, symObjAddr: 0xB2F0, symBinAddr: 0x10000D420, symSize: 0x20 }
  - { offsetInCU: 0x9450, offset: 0x367F1, size: 0x8, addend: 0x0, symName: __ZNSt3__19make_pairB7v160006IPP5StateS3_EENS_4pairINS_18__unwrap_ref_decayIT_E4typeENS5_IT0_E4typeEEEOS6_OS9_, symObjAddr: 0xB310, symBinAddr: 0x10000D440, symSize: 0x30 }
  - { offsetInCU: 0x949F, offset: 0x36840, size: 0x8, addend: 0x0, symName: __ZNSt3__114__rewrap_rangeB7v160006IPP5StateS3_EET_S4_T0_, symObjAddr: 0xB340, symBinAddr: 0x10000D470, symSize: 0x30 }
  - { offsetInCU: 0x94EB, offset: 0x3688C, size: 0x8, addend: 0x0, symName: __ZNSt3__113__rewrap_iterB7v160006IPP5StateS3_NS_18__unwrap_iter_implIS3_Lb1EEEEET_S6_T0_, symObjAddr: 0xB370, symBinAddr: 0x10000D4A0, symSize: 0x50 }
  - { offsetInCU: 0x9540, offset: 0x368E1, size: 0x8, addend: 0x0, symName: __ZNSt3__119__copy_trivial_implB7v160006IP5StateS2_EENS_4pairIPT_PT0_EES5_S5_S7_, symObjAddr: 0xB3C0, symBinAddr: 0x10000D4F0, symSize: 0x70 }
  - { offsetInCU: 0x95A9, offset: 0x3694A, size: 0x8, addend: 0x0, symName: __ZNSt3__19make_pairB7v160006IRPP5StateS3_EENS_4pairINS_18__unwrap_ref_decayIT_E4typeENS6_IT0_E4typeEEEOS7_OSA_, symObjAddr: 0xB430, symBinAddr: 0x10000D560, symSize: 0x30 }
  - { offsetInCU: 0x964C, offset: 0x369ED, size: 0x8, addend: 0x0, symName: __ZNSt3__130__uninitialized_allocator_copyB7v160006INS_9allocatorIP5StateEEPS3_S5_S5_EET2_RT_T0_T1_S6_, symObjAddr: 0xB530, symBinAddr: 0x10000D660, symSize: 0x110 }
  - { offsetInCU: 0x96EA, offset: 0x36A8B, size: 0x8, addend: 0x0, symName: __ZNSt3__122__make_exception_guardB7v160006INS_29_AllocatorDestroyRangeReverseINS_9allocatorIP5StateEEPS4_EEEENS_28__exception_guard_exceptionsIT_EES9_, symObjAddr: 0xB640, symBinAddr: 0x10000D770, symSize: 0x60 }
  - { offsetInCU: 0x971F, offset: 0x36AC0, size: 0x8, addend: 0x0, symName: __ZNSt3__119__allocator_destroyB7v160006INS_9allocatorIP5StateEENS_16reverse_iteratorIPS3_EES7_EEvRT_T0_T1_, symObjAddr: 0xB8B0, symBinAddr: 0x10000D9E0, symSize: 0x70 }
  - { offsetInCU: 0x9783, offset: 0x36B24, size: 0x8, addend: 0x0, symName: __ZNSt3__122__make_exception_guardB7v160006INS_6vectorIP5StateNS_9allocatorIS3_EEE16__destroy_vectorEEENS_28__exception_guard_exceptionsIT_EES9_, symObjAddr: 0xC550, symBinAddr: 0x10000DCA0, symSize: 0x40 }
  - { offsetInCU: 0xC085, offset: 0x39426, size: 0x8, addend: 0x0, symName: __ZN18StaticStateManagerC2Ev, symObjAddr: 0x0, symBinAddr: 0x100007B50, symSize: 0x140 }
  - { offsetInCU: 0xC0AF, offset: 0x39450, size: 0x8, addend: 0x0, symName: __ZNSt3__113unordered_setINS_12basic_stringIcNS_11char_traitsIcEENS_9allocatorIcEEEENS_4hashIS6_EENS_8equal_toIS6_EENS4_IS6_EEEC1B7v160006Ev, symObjAddr: 0x160, symBinAddr: 0x100007C90, symSize: 0x20 }
  - { offsetInCU: 0xC0D7, offset: 0x39478, size: 0x8, addend: 0x0, symName: __ZNSt3__113unordered_mapINS_12basic_stringIcNS_11char_traitsIcEENS_9allocatorIcEEEENS_6vectorIP5StateNS4_IS9_EEEENS_4hashIS6_EENS_8equal_toIS6_EENS4_INS_4pairIKS6_SB_EEEEEaSB7v160006ERKSK_, symObjAddr: 0x180, symBinAddr: 0x100007CB0, symSize: 0xC0 }
  - { offsetInCU: 0xC10A, offset: 0x394AB, size: 0x8, addend: 0x0, symName: __ZNSt3__113unordered_setINS_12basic_stringIcNS_11char_traitsIcEENS_9allocatorIcEEEENS_4hashIS6_EENS_8equal_toIS6_EENS4_IS6_EEEaSB7v160006ERKSC_, symObjAddr: 0x270, symBinAddr: 0x100007D70, symSize: 0x30 }
  - { offsetInCU: 0xC13D, offset: 0x394DE, size: 0x8, addend: 0x0, symName: __ZNSt3__113unordered_setINS_12basic_stringIcNS_11char_traitsIcEENS_9allocatorIcEEEENS_4hashIS6_EENS_8equal_toIS6_EENS4_IS6_EEED1B7v160006Ev, symObjAddr: 0x2A0, symBinAddr: 0x100007DA0, symSize: 0x20 }
  - { offsetInCU: 0xC165, offset: 0x39506, size: 0x8, addend: 0x0, symName: __ZN18StaticStateManagerC1Ev, symObjAddr: 0x2C0, symBinAddr: 0x100007DC0, symSize: 0x20 }
  - { offsetInCU: 0xC18F, offset: 0x39530, size: 0x8, addend: 0x0, symName: __ZN18StaticStateManager20populateStaticStatesEv, symObjAddr: 0x2E0, symBinAddr: 0x100007DE0, symSize: 0x5C0 }
  - { offsetInCU: 0xC20A, offset: 0x395AB, size: 0x8, addend: 0x0, symName: __ZNSt3__112basic_stringIcNS_11char_traitsIcEENS_9allocatorIcEEEC1B7v160006IDnEEPKc, symObjAddr: 0x8A0, symBinAddr: 0x1000083A0, symSize: 0x30 }
  - { offsetInCU: 0xC246, offset: 0x395E7, size: 0x8, addend: 0x0, symName: __ZNSt3__113unordered_setINS_12basic_stringIcNS_11char_traitsIcEENS_9allocatorIcEEEENS_4hashIS6_EENS_8equal_toIS6_EENS4_IS6_EEE6insertB7v160006ERKS6_, symObjAddr: 0x8D0, symBinAddr: 0x1000083D0, symSize: 0x40 }
  - { offsetInCU: 0xC279, offset: 0x3961A, size: 0x8, addend: 0x0, symName: __ZNSt3__16vectorIP5StateNS_9allocatorIS2_EEEaSB7v160006ERKS5_, symObjAddr: 0xAD0, symBinAddr: 0x100008410, symSize: 0x60 }
  - { offsetInCU: 0xC2AE, offset: 0x3964F, size: 0x8, addend: 0x0, symName: __ZN18StaticStateManager19getNextStaticStatesENSt3__112basic_stringIcNS0_11char_traitsIcEENS0_9allocatorIcEEEE, symObjAddr: 0xB50, symBinAddr: 0x100008470, symSize: 0xC0 }
  - { offsetInCU: 0xC2E4, offset: 0x39685, size: 0x8, addend: 0x0, symName: __ZNSt3__16vectorIP5StateNS_9allocatorIS2_EEEC1ERKS5_, symObjAddr: 0xCF0, symBinAddr: 0x100008560, symSize: 0x30 }
  - { offsetInCU: 0xC31E, offset: 0x396BF, size: 0x8, addend: 0x0, symName: __ZN18StaticStateManager11stateExistsENSt3__112basic_stringIcNS0_11char_traitsIcEENS0_9allocatorIcEEEE, symObjAddr: 0xD20, symBinAddr: 0x100008590, symSize: 0x70 }
  - { offsetInCU: 0xC354, offset: 0x396F5, size: 0x8, addend: 0x0, symName: __ZNSt3__113unordered_setINS_12basic_stringIcNS_11char_traitsIcEENS_9allocatorIcEEEENS_4hashIS6_EENS_8equal_toIS6_EENS4_IS6_EEE4findB7v160006ERKS6_, symObjAddr: 0xDC0, symBinAddr: 0x100008630, symSize: 0x40 }
  - { offsetInCU: 0xC387, offset: 0x39728, size: 0x8, addend: 0x0, symName: __ZNSt3__113unordered_setINS_12basic_stringIcNS_11char_traitsIcEENS_9allocatorIcEEEENS_4hashIS6_EENS_8equal_toIS6_EENS4_IS6_EEE3endB7v160006Ev, symObjAddr: 0xE00, symBinAddr: 0x100008670, symSize: 0x30 }
  - { offsetInCU: 0xC3BF, offset: 0x39760, size: 0x8, addend: 0x0, symName: __ZNSt3__113unordered_setINS_12basic_stringIcNS_11char_traitsIcEENS_9allocatorIcEEEENS_4hashIS6_EENS_8equal_toIS6_EENS4_IS6_EEEC2B7v160006Ev, symObjAddr: 0x1AB0, symBinAddr: 0x1000086A0, symSize: 0x60 }
  - { offsetInCU: 0xC3E7, offset: 0x39788, size: 0x8, addend: 0x0, symName: __ZNSt3__112__hash_tableINS_12basic_stringIcNS_11char_traitsIcEENS_9allocatorIcEEEENS_4hashIS6_EENS_8equal_toIS6_EENS4_IS6_EEEC1Ev, symObjAddr: 0x1B10, symBinAddr: 0x100008700, symSize: 0x20 }
  - { offsetInCU: 0xC412, offset: 0x397B3, size: 0x8, addend: 0x0, symName: __ZNSt3__112__hash_tableINS_12basic_stringIcNS_11char_traitsIcEENS_9allocatorIcEEEENS_4hashIS6_EENS_8equal_toIS6_EENS4_IS6_EEED1Ev, symObjAddr: 0x1B40, symBinAddr: 0x100008730, symSize: 0x20 }
  - { offsetInCU: 0xC43D, offset: 0x397DE, size: 0x8, addend: 0x0, symName: __ZNSt3__112__hash_tableINS_12basic_stringIcNS_11char_traitsIcEENS_9allocatorIcEEEENS_4hashIS6_EENS_8equal_toIS6_EENS4_IS6_EEEC2Ev, symObjAddr: 0x1B60, symBinAddr: 0x100008750, symSize: 0xB0 }
  - { offsetInCU: 0xC468, offset: 0x39809, size: 0x8, addend: 0x0, symName: __ZNSt3__110unique_ptrIA_PNS_16__hash_node_baseIPNS_11__hash_nodeINS_12basic_stringIcNS_11char_traitsIcEENS_9allocatorIcEEEEPvEEEENS_25__bucket_list_deallocatorINS6_ISD_EEEEEC1B7v160006ILb1EvEEv, symObjAddr: 0x1C10, symBinAddr: 0x100008800, symSize: 0x20 }
  - { offsetInCU: 0xC49B, offset: 0x3983C, size: 0x8, addend: 0x0, symName: __ZNSt3__117__compressed_pairINS_16__hash_node_baseIPNS_11__hash_nodeINS_12basic_stringIcNS_11char_traitsIcEENS_9allocatorIcEEEEPvEEEENS6_ISA_EEEC1B7v160006ILb1EvEEv, symObjAddr: 0x1C30, symBinAddr: 0x100008820, symSize: 0x20 }
  - { offsetInCU: 0xC4CE, offset: 0x3986F, size: 0x8, addend: 0x0, symName: __ZNSt3__117__compressed_pairImNS_4hashINS_12basic_stringIcNS_11char_traitsIcEENS_9allocatorIcEEEEEEEC1B7v160006IiNS_18__default_init_tagEEEOT_OT0_, symObjAddr: 0x1C50, symBinAddr: 0x100008840, symSize: 0x30 }
  - { offsetInCU: 0xC524, offset: 0x398C5, size: 0x8, addend: 0x0, symName: __ZNSt3__117__compressed_pairIfNS_8equal_toINS_12basic_stringIcNS_11char_traitsIcEENS_9allocatorIcEEEEEEEC1B7v160006IfNS_18__default_init_tagEEEOT_OT0_, symObjAddr: 0x1C80, symBinAddr: 0x100008870, symSize: 0x30 }
  - { offsetInCU: 0xC57A, offset: 0x3991B, size: 0x8, addend: 0x0, symName: __ZNSt3__110unique_ptrIA_PNS_16__hash_node_baseIPNS_11__hash_nodeINS_12basic_stringIcNS_11char_traitsIcEENS_9allocatorIcEEEEPvEEEENS_25__bucket_list_deallocatorINS6_ISD_EEEEED1B7v160006Ev, symObjAddr: 0x1CB0, symBinAddr: 0x1000088A0, symSize: 0x20 }
  - { offsetInCU: 0xC5A2, offset: 0x39943, size: 0x8, addend: 0x0, symName: __ZNSt3__110unique_ptrIA_PNS_16__hash_node_baseIPNS_11__hash_nodeINS_12basic_stringIcNS_11char_traitsIcEENS_9allocatorIcEEEEPvEEEENS_25__bucket_list_deallocatorINS6_ISD_EEEEEC2B7v160006ILb1EvEEv, symObjAddr: 0x1CD0, symBinAddr: 0x1000088C0, symSize: 0x40 }
  - { offsetInCU: 0xC5D5, offset: 0x39976, size: 0x8, addend: 0x0, symName: __ZNSt3__117__compressed_pairIPPNS_16__hash_node_baseIPNS_11__hash_nodeINS_12basic_stringIcNS_11char_traitsIcEENS_9allocatorIcEEEEPvEEEENS_25__bucket_list_deallocatorINS6_ISD_EEEEEC1B7v160006INS_16__value_init_tagESK_EEOT_OT0_, symObjAddr: 0x1D10, symBinAddr: 0x100008900, symSize: 0x30 }
  - { offsetInCU: 0xC62B, offset: 0x399CC, size: 0x8, addend: 0x0, symName: __ZNSt3__117__compressed_pairIPPNS_16__hash_node_baseIPNS_11__hash_nodeINS_12basic_stringIcNS_11char_traitsIcEENS_9allocatorIcEEEEPvEEEENS_25__bucket_list_deallocatorINS6_ISD_EEEEEC2B7v160006INS_16__value_init_tagESK_EEOT_OT0_, symObjAddr: 0x1D40, symBinAddr: 0x100008930, symSize: 0x40 }
  - { offsetInCU: 0xC681, offset: 0x39A22, size: 0x8, addend: 0x0, symName: __ZNSt3__122__compressed_pair_elemIPPNS_16__hash_node_baseIPNS_11__hash_nodeINS_12basic_stringIcNS_11char_traitsIcEENS_9allocatorIcEEEEPvEEEELi0ELb0EEC2B7v160006ENS_16__value_init_tagE, symObjAddr: 0x1D80, symBinAddr: 0x100008970, symSize: 0x20 }
  - { offsetInCU: 0xC6B3, offset: 0x39A54, size: 0x8, addend: 0x0, symName: __ZNSt3__122__compressed_pair_elemINS_25__bucket_list_deallocatorINS_9allocatorIPNS_16__hash_node_baseIPNS_11__hash_nodeINS_12basic_stringIcNS_11char_traitsIcEENS2_IcEEEEPvEEEEEEEELi1ELb0EEC2B7v160006ENS_16__value_init_tagE, symObjAddr: 0x1DA0, symBinAddr: 0x100008990, symSize: 0x20 }
  - { offsetInCU: 0xC6E5, offset: 0x39A86, size: 0x8, addend: 0x0, symName: __ZNSt3__125__bucket_list_deallocatorINS_9allocatorIPNS_16__hash_node_baseIPNS_11__hash_nodeINS_12basic_stringIcNS_11char_traitsIcEENS1_IcEEEEPvEEEEEEEC1B7v160006Ev, symObjAddr: 0x1DC0, symBinAddr: 0x1000089B0, symSize: 0x20 }
  - { offsetInCU: 0xC70D, offset: 0x39AAE, size: 0x8, addend: 0x0, symName: __ZNSt3__125__bucket_list_deallocatorINS_9allocatorIPNS_16__hash_node_baseIPNS_11__hash_nodeINS_12basic_stringIcNS_11char_traitsIcEENS1_IcEEEEPvEEEEEEEC2B7v160006Ev, symObjAddr: 0x1DE0, symBinAddr: 0x1000089D0, symSize: 0x30 }
  - { offsetInCU: 0xC735, offset: 0x39AD6, size: 0x8, addend: 0x0, symName: __ZNSt3__117__compressed_pairImNS_9allocatorIPNS_16__hash_node_baseIPNS_11__hash_nodeINS_12basic_stringIcNS_11char_traitsIcEENS1_IcEEEEPvEEEEEEEC1B7v160006IiNS_18__default_init_tagEEEOT_OT0_, symObjAddr: 0x1E10, symBinAddr: 0x100008A00, symSize: 0x30 }
  - { offsetInCU: 0xC78B, offset: 0x39B2C, size: 0x8, addend: 0x0, symName: __ZNSt3__117__compressed_pairImNS_9allocatorIPNS_16__hash_node_baseIPNS_11__hash_nodeINS_12basic_stringIcNS_11char_traitsIcEENS1_IcEEEEPvEEEEEEEC2B7v160006IiNS_18__default_init_tagEEEOT_OT0_, symObjAddr: 0x1E40, symBinAddr: 0x100008A30, symSize: 0x40 }
  - { offsetInCU: 0xC7E1, offset: 0x39B82, size: 0x8, addend: 0x0, symName: __ZNSt3__122__compressed_pair_elemINS_9allocatorIPNS_16__hash_node_baseIPNS_11__hash_nodeINS_12basic_stringIcNS_11char_traitsIcEENS1_IcEEEEPvEEEEEELi1ELb1EEC2B7v160006ENS_18__default_init_tagE, symObjAddr: 0x1E80, symBinAddr: 0x100008A70, symSize: 0x20 }
  - { offsetInCU: 0xC813, offset: 0x39BB4, size: 0x8, addend: 0x0, symName: __ZNSt3__19allocatorIPNS_16__hash_node_baseIPNS_11__hash_nodeINS_12basic_stringIcNS_11char_traitsIcEENS0_IcEEEEPvEEEEEC2B7v160006Ev, symObjAddr: 0x1EA0, symBinAddr: 0x100008A90, symSize: 0x20 }
  - { offsetInCU: 0xC83B, offset: 0x39BDC, size: 0x8, addend: 0x0, symName: __ZNSt3__116__non_trivial_ifILb1ENS_9allocatorIPNS_16__hash_node_baseIPNS_11__hash_nodeINS_12basic_stringIcNS_11char_traitsIcEENS1_IcEEEEPvEEEEEEEC2B7v160006Ev, symObjAddr: 0x1EC0, symBinAddr: 0x100008AB0, symSize: 0x10 }
  - { offsetInCU: 0xC863, offset: 0x39C04, size: 0x8, addend: 0x0, symName: __ZNSt3__117__compressed_pairINS_16__hash_node_baseIPNS_11__hash_nodeINS_12basic_stringIcNS_11char_traitsIcEENS_9allocatorIcEEEEPvEEEENS6_ISA_EEEC2B7v160006ILb1EvEEv, symObjAddr: 0x1ED0, symBinAddr: 0x100008AC0, symSize: 0x30 }
  - { offsetInCU: 0xC896, offset: 0x39C37, size: 0x8, addend: 0x0, symName: __ZNSt3__122__compressed_pair_elemINS_16__hash_node_baseIPNS_11__hash_nodeINS_12basic_stringIcNS_11char_traitsIcEENS_9allocatorIcEEEEPvEEEELi0ELb0EEC2B7v160006ENS_16__value_init_tagE, symObjAddr: 0x1F00, symBinAddr: 0x100008AF0, symSize: 0x20 }
  - { offsetInCU: 0xC8C8, offset: 0x39C69, size: 0x8, addend: 0x0, symName: __ZNSt3__122__compressed_pair_elemINS_9allocatorINS_11__hash_nodeINS_12basic_stringIcNS_11char_traitsIcEENS1_IcEEEEPvEEEELi1ELb1EEC2B7v160006ENS_16__value_init_tagE, symObjAddr: 0x1F20, symBinAddr: 0x100008B10, symSize: 0x20 }
  - { offsetInCU: 0xC8FA, offset: 0x39C9B, size: 0x8, addend: 0x0, symName: __ZNSt3__116__hash_node_baseIPNS_11__hash_nodeINS_12basic_stringIcNS_11char_traitsIcEENS_9allocatorIcEEEEPvEEEC1B7v160006Ev, symObjAddr: 0x1F40, symBinAddr: 0x100008B30, symSize: 0x20 }
  - { offsetInCU: 0xC922, offset: 0x39CC3, size: 0x8, addend: 0x0, symName: __ZNSt3__116__hash_node_baseIPNS_11__hash_nodeINS_12basic_stringIcNS_11char_traitsIcEENS_9allocatorIcEEEEPvEEEC2B7v160006Ev, symObjAddr: 0x1F60, symBinAddr: 0x100008B50, symSize: 0x20 }
  - { offsetInCU: 0xC94A, offset: 0x39CEB, size: 0x8, addend: 0x0, symName: __ZNSt3__19allocatorINS_11__hash_nodeINS_12basic_stringIcNS_11char_traitsIcEENS0_IcEEEEPvEEEC2B7v160006Ev, symObjAddr: 0x1F80, symBinAddr: 0x100008B70, symSize: 0x20 }
  - { offsetInCU: 0xC972, offset: 0x39D13, size: 0x8, addend: 0x0, symName: __ZNSt3__116__non_trivial_ifILb1ENS_9allocatorINS_11__hash_nodeINS_12basic_stringIcNS_11char_traitsIcEENS1_IcEEEEPvEEEEEC2B7v160006Ev, symObjAddr: 0x1FA0, symBinAddr: 0x100008B90, symSize: 0x10 }
  - { offsetInCU: 0xC99A, offset: 0x39D3B, size: 0x8, addend: 0x0, symName: __ZNSt3__117__compressed_pairImNS_4hashINS_12basic_stringIcNS_11char_traitsIcEENS_9allocatorIcEEEEEEEC2B7v160006IiNS_18__default_init_tagEEEOT_OT0_, symObjAddr: 0x1FB0, symBinAddr: 0x100008BA0, symSize: 0x40 }
  - { offsetInCU: 0xC9F0, offset: 0x39D91, size: 0x8, addend: 0x0, symName: __ZNSt3__122__compressed_pair_elemINS_4hashINS_12basic_stringIcNS_11char_traitsIcEENS_9allocatorIcEEEEEELi1ELb1EEC2B7v160006ENS_18__default_init_tagE, symObjAddr: 0x1FF0, symBinAddr: 0x100008BE0, symSize: 0x10 }
  - { offsetInCU: 0xCA22, offset: 0x39DC3, size: 0x8, addend: 0x0, symName: __ZNSt3__117__compressed_pairIfNS_8equal_toINS_12basic_stringIcNS_11char_traitsIcEENS_9allocatorIcEEEEEEEC2B7v160006IfNS_18__default_init_tagEEEOT_OT0_, symObjAddr: 0x2000, symBinAddr: 0x100008BF0, symSize: 0x40 }
  - { offsetInCU: 0xCA78, offset: 0x39E19, size: 0x8, addend: 0x0, symName: __ZNSt3__122__compressed_pair_elemINS_8equal_toINS_12basic_stringIcNS_11char_traitsIcEENS_9allocatorIcEEEEEELi1ELb1EEC2B7v160006ENS_18__default_init_tagE, symObjAddr: 0x2040, symBinAddr: 0x100008C30, symSize: 0x10 }
  - { offsetInCU: 0xCAAA, offset: 0x39E4B, size: 0x8, addend: 0x0, symName: __ZNSt3__110unique_ptrIA_PNS_16__hash_node_baseIPNS_11__hash_nodeINS_12basic_stringIcNS_11char_traitsIcEENS_9allocatorIcEEEEPvEEEENS_25__bucket_list_deallocatorINS6_ISD_EEEEED2B7v160006Ev, symObjAddr: 0x2050, symBinAddr: 0x100008C40, symSize: 0x20 }
  - { offsetInCU: 0xCAD2, offset: 0x39E73, size: 0x8, addend: 0x0, symName: __ZNSt3__110unique_ptrIA_PNS_16__hash_node_baseIPNS_11__hash_nodeINS_12basic_stringIcNS_11char_traitsIcEENS_9allocatorIcEEEEPvEEEENS_25__bucket_list_deallocatorINS6_ISD_EEEEE5resetB7v160006EDn, symObjAddr: 0x2070, symBinAddr: 0x100008C60, symSize: 0x60 }
  - { offsetInCU: 0xCB11, offset: 0x39EB2, size: 0x8, addend: 0x0, symName: __ZNSt3__117__compressed_pairIPPNS_16__hash_node_baseIPNS_11__hash_nodeINS_12basic_stringIcNS_11char_traitsIcEENS_9allocatorIcEEEEPvEEEENS_25__bucket_list_deallocatorINS6_ISD_EEEEE5firstB7v160006Ev, symObjAddr: 0x20D0, symBinAddr: 0x100008CC0, symSize: 0x20 }
  - { offsetInCU: 0xCB35, offset: 0x39ED6, size: 0x8, addend: 0x0, symName: __ZNSt3__117__compressed_pairIPPNS_16__hash_node_baseIPNS_11__hash_nodeINS_12basic_stringIcNS_11char_traitsIcEENS_9allocatorIcEEEEPvEEEENS_25__bucket_list_deallocatorINS6_ISD_EEEEE6secondB7v160006Ev, symObjAddr: 0x20F0, symBinAddr: 0x100008CE0, symSize: 0x20 }
  - { offsetInCU: 0xCB59, offset: 0x39EFA, size: 0x8, addend: 0x0, symName: __ZNSt3__125__bucket_list_deallocatorINS_9allocatorIPNS_16__hash_node_baseIPNS_11__hash_nodeINS_12basic_stringIcNS_11char_traitsIcEENS1_IcEEEEPvEEEEEEEclB7v160006EPSD_, symObjAddr: 0x2110, symBinAddr: 0x100008D00, symSize: 0x50 }
  - { offsetInCU: 0xCB8C, offset: 0x39F2D, size: 0x8, addend: 0x0, symName: __ZNSt3__122__compressed_pair_elemIPPNS_16__hash_node_baseIPNS_11__hash_nodeINS_12basic_stringIcNS_11char_traitsIcEENS_9allocatorIcEEEEPvEEEELi0ELb0EE5__getB7v160006Ev, symObjAddr: 0x2160, symBinAddr: 0x100008D50, symSize: 0x10 }
  - { offsetInCU: 0xCBB0, offset: 0x39F51, size: 0x8, addend: 0x0, symName: __ZNSt3__122__compressed_pair_elemINS_25__bucket_list_deallocatorINS_9allocatorIPNS_16__hash_node_baseIPNS_11__hash_nodeINS_12basic_stringIcNS_11char_traitsIcEENS2_IcEEEEPvEEEEEEEELi1ELb0EE5__getB7v160006Ev, symObjAddr: 0x2170, symBinAddr: 0x100008D60, symSize: 0x10 }
  - { offsetInCU: 0xCBD4, offset: 0x39F75, size: 0x8, addend: 0x0, symName: __ZNSt3__116allocator_traitsINS_9allocatorIPNS_16__hash_node_baseIPNS_11__hash_nodeINS_12basic_stringIcNS_11char_traitsIcEENS1_IcEEEEPvEEEEEEE10deallocateB7v160006ERSE_PSD_m, symObjAddr: 0x2180, symBinAddr: 0x100008D70, symSize: 0x30 }
  - { offsetInCU: 0xCC15, offset: 0x39FB6, size: 0x8, addend: 0x0, symName: __ZNSt3__125__bucket_list_deallocatorINS_9allocatorIPNS_16__hash_node_baseIPNS_11__hash_nodeINS_12basic_stringIcNS_11char_traitsIcEENS1_IcEEEEPvEEEEEEE7__allocB7v160006Ev, symObjAddr: 0x21B0, symBinAddr: 0x100008DA0, symSize: 0x20 }
  - { offsetInCU: 0xCC39, offset: 0x39FDA, size: 0x8, addend: 0x0, symName: __ZNSt3__125__bucket_list_deallocatorINS_9allocatorIPNS_16__hash_node_baseIPNS_11__hash_nodeINS_12basic_stringIcNS_11char_traitsIcEENS1_IcEEEEPvEEEEEEE4sizeB7v160006Ev, symObjAddr: 0x21D0, symBinAddr: 0x100008DC0, symSize: 0x20 }
  - { offsetInCU: 0xCC5D, offset: 0x39FFE, size: 0x8, addend: 0x0, symName: __ZNSt3__19allocatorIPNS_16__hash_node_baseIPNS_11__hash_nodeINS_12basic_stringIcNS_11char_traitsIcEENS0_IcEEEEPvEEEEE10deallocateB7v160006EPSC_m, symObjAddr: 0x21F0, symBinAddr: 0x100008DE0, symSize: 0x70 }
  - { offsetInCU: 0xCC9D, offset: 0x3A03E, size: 0x8, addend: 0x0, symName: __ZNSt3__117__compressed_pairImNS_9allocatorIPNS_16__hash_node_baseIPNS_11__hash_nodeINS_12basic_stringIcNS_11char_traitsIcEENS1_IcEEEEPvEEEEEEE6secondB7v160006Ev, symObjAddr: 0x2260, symBinAddr: 0x100008E50, symSize: 0x20 }
  - { offsetInCU: 0xCCC1, offset: 0x3A062, size: 0x8, addend: 0x0, symName: __ZNSt3__122__compressed_pair_elemINS_9allocatorIPNS_16__hash_node_baseIPNS_11__hash_nodeINS_12basic_stringIcNS_11char_traitsIcEENS1_IcEEEEPvEEEEEELi1ELb1EE5__getB7v160006Ev, symObjAddr: 0x2280, symBinAddr: 0x100008E70, symSize: 0x10 }
  - { offsetInCU: 0xCCE5, offset: 0x3A086, size: 0x8, addend: 0x0, symName: __ZNSt3__117__compressed_pairImNS_9allocatorIPNS_16__hash_node_baseIPNS_11__hash_nodeINS_12basic_stringIcNS_11char_traitsIcEENS1_IcEEEEPvEEEEEEE5firstB7v160006Ev, symObjAddr: 0x2290, symBinAddr: 0x100008E80, symSize: 0x20 }
  - { offsetInCU: 0xCD09, offset: 0x3A0AA, size: 0x8, addend: 0x0, symName: __ZNSt3__112__hash_tableINS_12basic_stringIcNS_11char_traitsIcEENS_9allocatorIcEEEENS_4hashIS6_EENS_8equal_toIS6_EENS4_IS6_EEED2Ev, symObjAddr: 0x22B0, symBinAddr: 0x100008EA0, symSize: 0x80 }
  - { offsetInCU: 0xCD34, offset: 0x3A0D5, size: 0x8, addend: 0x0, symName: __ZNSt3__112__hash_tableINS_12basic_stringIcNS_11char_traitsIcEENS_9allocatorIcEEEENS_4hashIS6_EENS_8equal_toIS6_EENS4_IS6_EEE17__deallocate_nodeEPNS_16__hash_node_baseIPNS_11__hash_nodeIS6_PvEEEE, symObjAddr: 0x2330, symBinAddr: 0x100008F20, symSize: 0xB0 }
  - { offsetInCU: 0xCD9C, offset: 0x3A13D, size: 0x8, addend: 0x0, symName: __ZNSt3__117__compressed_pairINS_16__hash_node_baseIPNS_11__hash_nodeINS_12basic_stringIcNS_11char_traitsIcEENS_9allocatorIcEEEEPvEEEENS6_ISA_EEE5firstB7v160006Ev, symObjAddr: 0x23E0, symBinAddr: 0x100008FD0, symSize: 0x20 }
  - { offsetInCU: 0xCDC0, offset: 0x3A161, size: 0x8, addend: 0x0, symName: __ZNSt3__112__hash_tableINS_12basic_stringIcNS_11char_traitsIcEENS_9allocatorIcEEEENS_4hashIS6_EENS_8equal_toIS6_EENS4_IS6_EEE12__node_allocB7v160006Ev, symObjAddr: 0x2410, symBinAddr: 0x100009000, symSize: 0x20 }
  - { offsetInCU: 0xCDE4, offset: 0x3A185, size: 0x8, addend: 0x0, symName: __ZNSt3__116__hash_node_baseIPNS_11__hash_nodeINS_12basic_stringIcNS_11char_traitsIcEENS_9allocatorIcEEEEPvEEE8__upcastB7v160006Ev, symObjAddr: 0x2430, symBinAddr: 0x100009020, symSize: 0x20 }
  - { offsetInCU: 0xCE08, offset: 0x3A1A9, size: 0x8, addend: 0x0, symName: __ZNSt3__116allocator_traitsINS_9allocatorINS_11__hash_nodeINS_12basic_stringIcNS_11char_traitsIcEENS1_IcEEEEPvEEEEE7destroyB7v160006IS7_vvEEvRSA_PT_, symObjAddr: 0x2450, symBinAddr: 0x100009040, symSize: 0x20 }
  - { offsetInCU: 0xCE42, offset: 0x3A1E3, size: 0x8, addend: 0x0, symName: __ZNSt3__122__hash_key_value_typesINS_12basic_stringIcNS_11char_traitsIcEENS_9allocatorIcEEEEE9__get_ptrB7v160006ERS6_, symObjAddr: 0x2470, symBinAddr: 0x100009060, symSize: 0x10 }
  - { offsetInCU: 0xCE64, offset: 0x3A205, size: 0x8, addend: 0x0, symName: __ZNSt3__116allocator_traitsINS_9allocatorINS_11__hash_nodeINS_12basic_stringIcNS_11char_traitsIcEENS1_IcEEEEPvEEEEE10deallocateB7v160006ERSA_PS9_m, symObjAddr: 0x2480, symBinAddr: 0x100009070, symSize: 0x30 }
  - { offsetInCU: 0xCEA5, offset: 0x3A246, size: 0x8, addend: 0x0, symName: __ZNSt3__117__compressed_pairINS_16__hash_node_baseIPNS_11__hash_nodeINS_12basic_stringIcNS_11char_traitsIcEENS_9allocatorIcEEEEPvEEEENS6_ISA_EEE6secondB7v160006Ev, symObjAddr: 0x24B0, symBinAddr: 0x1000090A0, symSize: 0x20 }
  - { offsetInCU: 0xCEC9, offset: 0x3A26A, size: 0x8, addend: 0x0, symName: __ZNSt3__122__compressed_pair_elemINS_9allocatorINS_11__hash_nodeINS_12basic_stringIcNS_11char_traitsIcEENS1_IcEEEEPvEEEELi1ELb1EE5__getB7v160006Ev, symObjAddr: 0x24D0, symBinAddr: 0x1000090C0, symSize: 0x10 }
  - { offsetInCU: 0xCEED, offset: 0x3A28E, size: 0x8, addend: 0x0, symName: __ZNSt3__114pointer_traitsIPNS_16__hash_node_baseIPNS_11__hash_nodeINS_12basic_stringIcNS_11char_traitsIcEENS_9allocatorIcEEEEPvEEEEE10pointer_toB7v160006ERSC_, symObjAddr: 0x24E0, symBinAddr: 0x1000090D0, symSize: 0x10 }
  - { offsetInCU: 0xCF0F, offset: 0x3A2B0, size: 0x8, addend: 0x0, symName: __ZNSt3__19allocatorINS_11__hash_nodeINS_12basic_stringIcNS_11char_traitsIcEENS0_IcEEEEPvEEE10deallocateB7v160006EPS8_m, symObjAddr: 0x24F0, symBinAddr: 0x1000090E0, symSize: 0x80 }
  - { offsetInCU: 0xCF4F, offset: 0x3A2F0, size: 0x8, addend: 0x0, symName: __ZNSt3__122__compressed_pair_elemINS_16__hash_node_baseIPNS_11__hash_nodeINS_12basic_stringIcNS_11char_traitsIcEENS_9allocatorIcEEEEPvEEEELi0ELb0EE5__getB7v160006Ev, symObjAddr: 0x2570, symBinAddr: 0x100009160, symSize: 0x10 }
  - { offsetInCU: 0xCF73, offset: 0x3A314, size: 0x8, addend: 0x0, symName: __ZNSt3__113unordered_setINS_12basic_stringIcNS_11char_traitsIcEENS_9allocatorIcEEEENS_4hashIS6_EENS_8equal_toIS6_EENS4_IS6_EEED2B7v160006Ev, symObjAddr: 0x25A0, symBinAddr: 0x100009170, symSize: 0x20 }
  - { offsetInCU: 0xCF9B, offset: 0x3A33C, size: 0x8, addend: 0x0, symName: __ZNSt3__112__hash_tableINS_17__hash_value_typeINS_12basic_stringIcNS_11char_traitsIcEENS_9allocatorIcEEEENS_6vectorIP5StateNS5_ISA_EEEEEENS_22__unordered_map_hasherIS7_SD_NS_4hashIS7_EENS_8equal_toIS7_EELb1EEENS_21__unordered_map_equalIS7_SD_SI_SG_Lb1EEENS5_ISD_EEE5clearEv, symObjAddr: 0x25C0, symBinAddr: 0x100009190, symSize: 0xD0 }
  - { offsetInCU: 0xCFF3, offset: 0x3A394, size: 0x8, addend: 0x0, symName: __ZNKSt3__112__hash_tableINS_17__hash_value_typeINS_12basic_stringIcNS_11char_traitsIcEENS_9allocatorIcEEEENS_6vectorIP5StateNS5_ISA_EEEEEENS_22__unordered_map_hasherIS7_SD_NS_4hashIS7_EENS_8equal_toIS7_EELb1EEENS_21__unordered_map_equalIS7_SD_SI_SG_Lb1EEENS5_ISD_EEE13hash_functionB7v160006Ev, symObjAddr: 0x2690, symBinAddr: 0x100009260, symSize: 0x20 }
  - { offsetInCU: 0xD017, offset: 0x3A3B8, size: 0x8, addend: 0x0, symName: __ZNKSt3__112__hash_tableINS_17__hash_value_typeINS_12basic_stringIcNS_11char_traitsIcEENS_9allocatorIcEEEENS_6vectorIP5StateNS5_ISA_EEEEEENS_22__unordered_map_hasherIS7_SD_NS_4hashIS7_EENS_8equal_toIS7_EELb1EEENS_21__unordered_map_equalIS7_SD_SI_SG_Lb1EEENS5_ISD_EEE6key_eqB7v160006Ev, symObjAddr: 0x26D0, symBinAddr: 0x100009280, symSize: 0x20 }
  - { offsetInCU: 0xD03B, offset: 0x3A3DC, size: 0x8, addend: 0x0, symName: __ZNKSt3__112__hash_tableINS_17__hash_value_typeINS_12basic_stringIcNS_11char_traitsIcEENS_9allocatorIcEEEENS_6vectorIP5StateNS5_ISA_EEEEEENS_22__unordered_map_hasherIS7_SD_NS_4hashIS7_EENS_8equal_toIS7_EELb1EEENS_21__unordered_map_equalIS7_SD_SI_SG_Lb1EEENS5_ISD_EEE15max_load_factorB7v160006Ev, symObjAddr: 0x2710, symBinAddr: 0x1000092A0, symSize: 0x30 }
  - { offsetInCU: 0xD05F, offset: 0x3A400, size: 0x8, addend: 0x0, symName: __ZNSt3__112__hash_tableINS_17__hash_value_typeINS_12basic_stringIcNS_11char_traitsIcEENS_9allocatorIcEEEENS_6vectorIP5StateNS5_ISA_EEEEEENS_22__unordered_map_hasherIS7_SD_NS_4hashIS7_EENS_8equal_toIS7_EELb1EEENS_21__unordered_map_equalIS7_SD_SI_SG_Lb1EEENS5_ISD_EEE19__copy_assign_allocB7v160006ERKSN_, symObjAddr: 0x2760, symBinAddr: 0x1000092D0, symSize: 0x30 }
  - { offsetInCU: 0xD092, offset: 0x3A433, size: 0x8, addend: 0x0, symName: __ZNSt3__113unordered_mapINS_12basic_stringIcNS_11char_traitsIcEENS_9allocatorIcEEEENS_6vectorIP5StateNS4_IS9_EEEENS_4hashIS6_EENS_8equal_toIS6_EENS4_INS_4pairIKS6_SB_EEEEE6insertINS_25__hash_map_const_iteratorINS_21__hash_const_iteratorIPNS_11__hash_nodeINS_17__hash_value_typeIS6_SB_EEPvEEEEEEEEvT_SW_, symObjAddr: 0x2790, symBinAddr: 0x100009300, symSize: 0x70 }
  - { offsetInCU: 0xD0DF, offset: 0x3A480, size: 0x8, addend: 0x0, symName: __ZNKSt3__113unordered_mapINS_12basic_stringIcNS_11char_traitsIcEENS_9allocatorIcEEEENS_6vectorIP5StateNS4_IS9_EEEENS_4hashIS6_EENS_8equal_toIS6_EENS4_INS_4pairIKS6_SB_EEEEE5beginB7v160006Ev, symObjAddr: 0x2800, symBinAddr: 0x100009370, symSize: 0x30 }
  - { offsetInCU: 0xD103, offset: 0x3A4A4, size: 0x8, addend: 0x0, symName: __ZNKSt3__113unordered_mapINS_12basic_stringIcNS_11char_traitsIcEENS_9allocatorIcEEEENS_6vectorIP5StateNS4_IS9_EEEENS_4hashIS6_EENS_8equal_toIS6_EENS4_INS_4pairIKS6_SB_EEEEE3endB7v160006Ev, symObjAddr: 0x2830, symBinAddr: 0x1000093A0, symSize: 0x30 }
  - { offsetInCU: 0xD127, offset: 0x3A4C8, size: 0x8, addend: 0x0, symName: __ZNKSt3__117__compressed_pairImNS_22__unordered_map_hasherINS_12basic_stringIcNS_11char_traitsIcEENS_9allocatorIcEEEENS_17__hash_value_typeIS7_NS_6vectorIP5StateNS5_ISB_EEEEEENS_4hashIS7_EENS_8equal_toIS7_EELb1EEEE6secondB7v160006Ev, symObjAddr: 0x29D0, symBinAddr: 0x1000093D0, symSize: 0x20 }
  - { offsetInCU: 0xD14B, offset: 0x3A4EC, size: 0x8, addend: 0x0, symName: __ZNKSt3__122__compressed_pair_elemINS_22__unordered_map_hasherINS_12basic_stringIcNS_11char_traitsIcEENS_9allocatorIcEEEENS_17__hash_value_typeIS7_NS_6vectorIP5StateNS5_ISB_EEEEEENS_4hashIS7_EENS_8equal_toIS7_EELb1EEELi1ELb1EE5__getB7v160006Ev, symObjAddr: 0x29F0, symBinAddr: 0x1000093F0, symSize: 0x10 }
  - { offsetInCU: 0xD16F, offset: 0x3A510, size: 0x8, addend: 0x0, symName: __ZNKSt3__117__compressed_pairIfNS_21__unordered_map_equalINS_12basic_stringIcNS_11char_traitsIcEENS_9allocatorIcEEEENS_17__hash_value_typeIS7_NS_6vectorIP5StateNS5_ISB_EEEEEENS_8equal_toIS7_EENS_4hashIS7_EELb1EEEE6secondB7v160006Ev, symObjAddr: 0x2A30, symBinAddr: 0x100009400, symSize: 0x20 }
  - { offsetInCU: 0xD193, offset: 0x3A534, size: 0x8, addend: 0x0, symName: __ZNKSt3__122__compressed_pair_elemINS_21__unordered_map_equalINS_12basic_stringIcNS_11char_traitsIcEENS_9allocatorIcEEEENS_17__hash_value_typeIS7_NS_6vectorIP5StateNS5_ISB_EEEEEENS_8equal_toIS7_EENS_4hashIS7_EELb1EEELi1ELb1EE5__getB7v160006Ev, symObjAddr: 0x2A50, symBinAddr: 0x100009420, symSize: 0x10 }
  - { offsetInCU: 0xD1B7, offset: 0x3A558, size: 0x8, addend: 0x0, symName: __ZNKSt3__117__compressed_pairIfNS_21__unordered_map_equalINS_12basic_stringIcNS_11char_traitsIcEENS_9allocatorIcEEEENS_17__hash_value_typeIS7_NS_6vectorIP5StateNS5_ISB_EEEEEENS_8equal_toIS7_EENS_4hashIS7_EELb1EEEE5firstB7v160006Ev, symObjAddr: 0x2A90, symBinAddr: 0x100009430, symSize: 0x20 }
  - { offsetInCU: 0xD1DB, offset: 0x3A57C, size: 0x8, addend: 0x0, symName: __ZNKSt3__122__compressed_pair_elemIfLi0ELb0EE5__getB7v160006Ev, symObjAddr: 0x2AB0, symBinAddr: 0x100009450, symSize: 0x10 }
  - { offsetInCU: 0xD1FF, offset: 0x3A5A0, size: 0x8, addend: 0x0, symName: __ZNSt3__112__hash_tableINS_17__hash_value_typeINS_12basic_stringIcNS_11char_traitsIcEENS_9allocatorIcEEEENS_6vectorIP5StateNS5_ISA_EEEEEENS_22__unordered_map_hasherIS7_SD_NS_4hashIS7_EENS_8equal_toIS7_EELb1EEENS_21__unordered_map_equalIS7_SD_SI_SG_Lb1EEENS5_ISD_EEE19__copy_assign_allocB7v160006ERKSN_NS_17integral_constantIbLb0EEE, symObjAddr: 0x2AF0, symBinAddr: 0x100009460, symSize: 0x10 }
  - { offsetInCU: 0xD23B, offset: 0x3A5DC, size: 0x8, addend: 0x0, symName: __ZNSt3__112__hash_tableINS_17__hash_value_typeINS_12basic_stringIcNS_11char_traitsIcEENS_9allocatorIcEEEENS_6vectorIP5StateNS5_ISA_EEEEEENS_22__unordered_map_hasherIS7_SD_NS_4hashIS7_EENS_8equal_toIS7_EELb1EEENS_21__unordered_map_equalIS7_SD_SI_SG_Lb1EEENS5_ISD_EEE15__insert_uniqueB7v160006ERKNS_4pairIKS7_SC_EE, symObjAddr: 0x2B30, symBinAddr: 0x1000094A0, symSize: 0x50 }
  - { offsetInCU: 0xD26E, offset: 0x3A60F, size: 0x8, addend: 0x0, symName: __ZNKSt3__125__hash_map_const_iteratorINS_21__hash_const_iteratorIPNS_11__hash_nodeINS_17__hash_value_typeINS_12basic_stringIcNS_11char_traitsIcEENS_9allocatorIcEEEENS_6vectorIP5StateNS7_ISC_EEEEEEPvEEEEEdeB7v160006Ev, symObjAddr: 0x2B80, symBinAddr: 0x1000094F0, symSize: 0x30 }
  - { offsetInCU: 0xD292, offset: 0x3A633, size: 0x8, addend: 0x0, symName: __ZNSt3__125__hash_map_const_iteratorINS_21__hash_const_iteratorIPNS_11__hash_nodeINS_17__hash_value_typeINS_12basic_stringIcNS_11char_traitsIcEENS_9allocatorIcEEEENS_6vectorIP5StateNS7_ISC_EEEEEEPvEEEEEppB7v160006Ev, symObjAddr: 0x2BB0, symBinAddr: 0x100009520, symSize: 0x30 }
  - { offsetInCU: 0xD2B6, offset: 0x3A657, size: 0x8, addend: 0x0, symName: __ZNSt3__112__hash_tableINS_17__hash_value_typeINS_12basic_stringIcNS_11char_traitsIcEENS_9allocatorIcEEEENS_6vectorIP5StateNS5_ISA_EEEEEENS_22__unordered_map_hasherIS7_SD_NS_4hashIS7_EENS_8equal_toIS7_EELb1EEENS_21__unordered_map_equalIS7_SD_SI_SG_Lb1EEENS5_ISD_EEE25__emplace_unique_key_argsIS7_JRKNS_4pairIKS7_SC_EEEEENSP_INS_15__hash_iteratorIPNS_11__hash_nodeISD_PvEEEEbEERKT_DpOT0_, symObjAddr: 0x2C40, symBinAddr: 0x1000095B0, symSize: 0x600 }
  - { offsetInCU: 0xD392, offset: 0x3A733, size: 0x8, addend: 0x0, symName: __ZNSt3__122__hash_key_value_typesINS_17__hash_value_typeINS_12basic_stringIcNS_11char_traitsIcEENS_9allocatorIcEEEENS_6vectorIP5StateNS5_ISA_EEEEEEE9__get_keyB7v160006ERKNS_4pairIKS7_SC_EE, symObjAddr: 0x3240, symBinAddr: 0x100009BB0, symSize: 0x10 }
  - { offsetInCU: 0xD3B4, offset: 0x3A755, size: 0x8, addend: 0x0, symName: __ZNSt3__112__hash_tableINS_17__hash_value_typeINS_12basic_stringIcNS_11char_traitsIcEENS_9allocatorIcEEEENS_6vectorIP5StateNS5_ISA_EEEEEENS_22__unordered_map_hasherIS7_SD_NS_4hashIS7_EENS_8equal_toIS7_EELb1EEENS_21__unordered_map_equalIS7_SD_SI_SG_Lb1EEENS5_ISD_EEE21__construct_node_hashIRKNS_4pairIKS7_SC_EEJEEENS_10unique_ptrINS_11__hash_nodeISD_PvEENS_22__hash_node_destructorINS5_ISX_EEEEEEmOT_DpOT0_, symObjAddr: 0x3360, symBinAddr: 0x100009BC0, symSize: 0x140 }
  - { offsetInCU: 0xD426, offset: 0x3A7C7, size: 0x8, addend: 0x0, symName: __ZNKSt3__110unique_ptrINS_11__hash_nodeINS_17__hash_value_typeINS_12basic_stringIcNS_11char_traitsIcEENS_9allocatorIcEEEENS_6vectorIP5StateNS6_ISB_EEEEEEPvEENS_22__hash_node_destructorINS6_ISG_EEEEEptB7v160006Ev, symObjAddr: 0x3580, symBinAddr: 0x100009D00, symSize: 0x20 }
  - { offsetInCU: 0xD44A, offset: 0x3A7EB, size: 0x8, addend: 0x0, symName: __ZNKSt3__110unique_ptrINS_11__hash_nodeINS_17__hash_value_typeINS_12basic_stringIcNS_11char_traitsIcEENS_9allocatorIcEEEENS_6vectorIP5StateNS6_ISB_EEEEEEPvEENS_22__hash_node_destructorINS6_ISG_EEEEE3getB7v160006Ev, symObjAddr: 0x35A0, symBinAddr: 0x100009D20, symSize: 0x20 }
  - { offsetInCU: 0xD46E, offset: 0x3A80F, size: 0x8, addend: 0x0, symName: __ZNSt3__110unique_ptrINS_11__hash_nodeINS_17__hash_value_typeINS_12basic_stringIcNS_11char_traitsIcEENS_9allocatorIcEEEENS_6vectorIP5StateNS6_ISB_EEEEEEPvEENS_22__hash_node_destructorINS6_ISG_EEEEE7releaseB7v160006Ev, symObjAddr: 0x35C0, symBinAddr: 0x100009D40, symSize: 0x40 }
  - { offsetInCU: 0xD4A1, offset: 0x3A842, size: 0x8, addend: 0x0, symName: __ZNSt3__110unique_ptrINS_11__hash_nodeINS_17__hash_value_typeINS_12basic_stringIcNS_11char_traitsIcEENS_9allocatorIcEEEENS_6vectorIP5StateNS6_ISB_EEEEEEPvEENS_22__hash_node_destructorINS6_ISG_EEEEED1B7v160006Ev, symObjAddr: 0x3600, symBinAddr: 0x100009D80, symSize: 0x20 }
  - { offsetInCU: 0xD4C9, offset: 0x3A86A, size: 0x8, addend: 0x0, symName: __ZNSt3__122__hash_node_destructorINS_9allocatorINS_11__hash_nodeINS_17__hash_value_typeINS_12basic_stringIcNS_11char_traitsIcEENS1_IcEEEENS_6vectorIP5StateNS1_ISB_EEEEEEPvEEEEEC1B7v160006ERSH_b, symObjAddr: 0x47C0, symBinAddr: 0x100009DA0, symSize: 0x40 }
  - { offsetInCU: 0xD514, offset: 0x3A8B5, size: 0x8, addend: 0x0, symName: __ZNSt3__110unique_ptrINS_11__hash_nodeINS_17__hash_value_typeINS_12basic_stringIcNS_11char_traitsIcEENS_9allocatorIcEEEENS_6vectorIP5StateNS6_ISB_EEEEEEPvEENS_22__hash_node_destructorINS6_ISG_EEEEEC1B7v160006ILb1EvEEPSG_NS_16__dependent_typeINS_27__unique_ptr_deleter_sfinaeISJ_EEXT_EE20__good_rval_ref_typeE, symObjAddr: 0x4800, symBinAddr: 0x100009DE0, symSize: 0x30 }
  - { offsetInCU: 0xD563, offset: 0x3A904, size: 0x8, addend: 0x0, symName: __ZNSt3__116allocator_traitsINS_9allocatorINS_11__hash_nodeINS_17__hash_value_typeINS_12basic_stringIcNS_11char_traitsIcEENS1_IcEEEENS_6vectorIP5StateNS1_ISB_EEEEEEPvEEEEE9constructB7v160006INS_4pairIKS8_SD_EEJRKSM_EvEEvRSH_PT_DpOT0_, symObjAddr: 0x4830, symBinAddr: 0x100009E10, symSize: 0x30 }
  - { offsetInCU: 0xD5B9, offset: 0x3A95A, size: 0x8, addend: 0x0, symName: __ZNSt3__110unique_ptrINS_11__hash_nodeINS_17__hash_value_typeINS_12basic_stringIcNS_11char_traitsIcEENS_9allocatorIcEEEENS_6vectorIP5StateNS6_ISB_EEEEEEPvEENS_22__hash_node_destructorINS6_ISG_EEEEE11get_deleterB7v160006Ev, symObjAddr: 0x4860, symBinAddr: 0x100009E40, symSize: 0x20 }
  - { offsetInCU: 0xD5E7, offset: 0x3A988, size: 0x8, addend: 0x0, symName: __ZNSt3__122__hash_node_destructorINS_9allocatorINS_11__hash_nodeINS_17__hash_value_typeINS_12basic_stringIcNS_11char_traitsIcEENS1_IcEEEENS_6vectorIP5StateNS1_ISB_EEEEEEPvEEEEEC2B7v160006ERSH_b, symObjAddr: 0x49C0, symBinAddr: 0x100009E60, symSize: 0x30 }
  - { offsetInCU: 0xD62D, offset: 0x3A9CE, size: 0x8, addend: 0x0, symName: __ZNSt3__110unique_ptrINS_11__hash_nodeINS_17__hash_value_typeINS_12basic_stringIcNS_11char_traitsIcEENS_9allocatorIcEEEENS_6vectorIP5StateNS6_ISB_EEEEEEPvEENS_22__hash_node_destructorINS6_ISG_EEEEEC2B7v160006ILb1EvEEPSG_NS_16__dependent_typeINS_27__unique_ptr_deleter_sfinaeISJ_EEXT_EE20__good_rval_ref_typeE, symObjAddr: 0x49F0, symBinAddr: 0x100009E90, symSize: 0x50 }
  - { offsetInCU: 0xD67C, offset: 0x3AA1D, size: 0x8, addend: 0x0, symName: __ZNSt3__117__compressed_pairIPNS_11__hash_nodeINS_17__hash_value_typeINS_12basic_stringIcNS_11char_traitsIcEENS_9allocatorIcEEEENS_6vectorIP5StateNS6_ISB_EEEEEEPvEENS_22__hash_node_destructorINS6_ISG_EEEEEC1B7v160006IRSH_SK_EEOT_OT0_, symObjAddr: 0x4A40, symBinAddr: 0x100009EE0, symSize: 0x30 }
  - { offsetInCU: 0xD6D2, offset: 0x3AA73, size: 0x8, addend: 0x0, symName: __ZNSt3__117__compressed_pairIPNS_11__hash_nodeINS_17__hash_value_typeINS_12basic_stringIcNS_11char_traitsIcEENS_9allocatorIcEEEENS_6vectorIP5StateNS6_ISB_EEEEEEPvEENS_22__hash_node_destructorINS6_ISG_EEEEEC2B7v160006IRSH_SK_EEOT_OT0_, symObjAddr: 0x4A70, symBinAddr: 0x100009F10, symSize: 0x40 }
  - { offsetInCU: 0xD728, offset: 0x3AAC9, size: 0x8, addend: 0x0, symName: __ZNSt3__122__compressed_pair_elemINS_22__hash_node_destructorINS_9allocatorINS_11__hash_nodeINS_17__hash_value_typeINS_12basic_stringIcNS_11char_traitsIcEENS2_IcEEEENS_6vectorIP5StateNS2_ISC_EEEEEEPvEEEEEELi1ELb0EEC2B7v160006ISJ_vEEOT_, symObjAddr: 0x4AD0, symBinAddr: 0x100009F50, symSize: 0x30 }
  - { offsetInCU: 0xD768, offset: 0x3AB09, size: 0x8, addend: 0x0, symName: __ZNSt3__19allocatorINS_11__hash_nodeINS_17__hash_value_typeINS_12basic_stringIcNS_11char_traitsIcEENS0_IcEEEENS_6vectorIP5StateNS0_ISA_EEEEEEPvEEE9constructB7v160006INS_4pairIKS7_SC_EEJRKSK_EEEvPT_DpOT0_, symObjAddr: 0x4B00, symBinAddr: 0x100009F80, symSize: 0x30 }
  - { offsetInCU: 0xD7BC, offset: 0x3AB5D, size: 0x8, addend: 0x0, symName: __ZNSt3__14pairIKNS_12basic_stringIcNS_11char_traitsIcEENS_9allocatorIcEEEENS_6vectorIP5StateNS4_ISA_EEEEEC1ERKSD_, symObjAddr: 0x4B30, symBinAddr: 0x100009FB0, symSize: 0x30 }
  - { offsetInCU: 0xD7EE, offset: 0x3AB8F, size: 0x8, addend: 0x0, symName: __ZNSt3__14pairIKNS_12basic_stringIcNS_11char_traitsIcEENS_9allocatorIcEEEENS_6vectorIP5StateNS4_ISA_EEEEEC2ERKSD_, symObjAddr: 0x4B60, symBinAddr: 0x100009FE0, symSize: 0x80 }
  - { offsetInCU: 0xD820, offset: 0x3ABC1, size: 0x8, addend: 0x0, symName: __ZNSt3__117__compressed_pairIPNS_11__hash_nodeINS_17__hash_value_typeINS_12basic_stringIcNS_11char_traitsIcEENS_9allocatorIcEEEENS_6vectorIP5StateNS6_ISB_EEEEEEPvEENS_22__hash_node_destructorINS6_ISG_EEEEE6secondB7v160006Ev, symObjAddr: 0x4BE0, symBinAddr: 0x10000A060, symSize: 0x20 }
  - { offsetInCU: 0xD844, offset: 0x3ABE5, size: 0x8, addend: 0x0, symName: __ZNSt3__122__compressed_pair_elemINS_22__hash_node_destructorINS_9allocatorINS_11__hash_nodeINS_17__hash_value_typeINS_12basic_stringIcNS_11char_traitsIcEENS2_IcEEEENS_6vectorIP5StateNS2_ISC_EEEEEEPvEEEEEELi1ELb0EE5__getB7v160006Ev, symObjAddr: 0x4C00, symBinAddr: 0x10000A080, symSize: 0x10 }
  - { offsetInCU: 0xD868, offset: 0x3AC09, size: 0x8, addend: 0x0, symName: __ZNKSt3__117__compressed_pairIPNS_11__hash_nodeINS_17__hash_value_typeINS_12basic_stringIcNS_11char_traitsIcEENS_9allocatorIcEEEENS_6vectorIP5StateNS6_ISB_EEEEEEPvEENS_22__hash_node_destructorINS6_ISG_EEEEE5firstB7v160006Ev, symObjAddr: 0x5330, symBinAddr: 0x10000A090, symSize: 0x20 }
  - { offsetInCU: 0xD88C, offset: 0x3AC2D, size: 0x8, addend: 0x0, symName: __ZNSt3__117__compressed_pairIPNS_11__hash_nodeINS_17__hash_value_typeINS_12basic_stringIcNS_11char_traitsIcEENS_9allocatorIcEEEENS_6vectorIP5StateNS6_ISB_EEEEEEPvEENS_22__hash_node_destructorINS6_ISG_EEEEE5firstB7v160006Ev, symObjAddr: 0x5360, symBinAddr: 0x10000A0B0, symSize: 0x20 }
  - { offsetInCU: 0xD8B0, offset: 0x3AC51, size: 0x8, addend: 0x0, symName: __ZNSt3__110unique_ptrINS_11__hash_nodeINS_17__hash_value_typeINS_12basic_stringIcNS_11char_traitsIcEENS_9allocatorIcEEEENS_6vectorIP5StateNS6_ISB_EEEEEEPvEENS_22__hash_node_destructorINS6_ISG_EEEEED2B7v160006Ev, symObjAddr: 0x5390, symBinAddr: 0x10000A0D0, symSize: 0x20 }
  - { offsetInCU: 0xD8D8, offset: 0x3AC79, size: 0x8, addend: 0x0, symName: __ZNSt3__110unique_ptrINS_11__hash_nodeINS_17__hash_value_typeINS_12basic_stringIcNS_11char_traitsIcEENS_9allocatorIcEEEENS_6vectorIP5StateNS6_ISB_EEEEEEPvEENS_22__hash_node_destructorINS6_ISG_EEEEE5resetB7v160006EPSG_, symObjAddr: 0x53B0, symBinAddr: 0x10000A0F0, symSize: 0x70 }
  - { offsetInCU: 0xD91A, offset: 0x3ACBB, size: 0x8, addend: 0x0, symName: __ZNSt3__122__hash_node_destructorINS_9allocatorINS_11__hash_nodeINS_17__hash_value_typeINS_12basic_stringIcNS_11char_traitsIcEENS1_IcEEEENS_6vectorIP5StateNS1_ISB_EEEEEEPvEEEEEclB7v160006EPSG_, symObjAddr: 0x5420, symBinAddr: 0x10000A160, symSize: 0xA0 }
  - { offsetInCU: 0xD94D, offset: 0x3ACEE, size: 0x8, addend: 0x0, symName: __ZNKSt3__121__hash_const_iteratorIPNS_11__hash_nodeINS_17__hash_value_typeINS_12basic_stringIcNS_11char_traitsIcEENS_9allocatorIcEEEENS_6vectorIP5StateNS6_ISB_EEEEEEPvEEEptB7v160006Ev, symObjAddr: 0x5510, symBinAddr: 0x10000A200, symSize: 0x30 }
  - { offsetInCU: 0xD971, offset: 0x3AD12, size: 0x8, addend: 0x0, symName: __ZNSt3__114pointer_traitsIPKNS_17__hash_value_typeINS_12basic_stringIcNS_11char_traitsIcEENS_9allocatorIcEEEENS_6vectorIP5StateNS5_ISA_EEEEEEE10pointer_toB7v160006ERSE_, symObjAddr: 0x5540, symBinAddr: 0x10000A230, symSize: 0x10 }
  - { offsetInCU: 0xD993, offset: 0x3AD34, size: 0x8, addend: 0x0, symName: __ZNSt3__121__hash_const_iteratorIPNS_11__hash_nodeINS_17__hash_value_typeINS_12basic_stringIcNS_11char_traitsIcEENS_9allocatorIcEEEENS_6vectorIP5StateNS6_ISB_EEEEEEPvEEEppB7v160006Ev, symObjAddr: 0x5550, symBinAddr: 0x10000A240, symSize: 0x20 }
  - { offsetInCU: 0xD9B7, offset: 0x3AD58, size: 0x8, addend: 0x0, symName: __ZNKSt3__112__hash_tableINS_17__hash_value_typeINS_12basic_stringIcNS_11char_traitsIcEENS_9allocatorIcEEEENS_6vectorIP5StateNS5_ISA_EEEEEENS_22__unordered_map_hasherIS7_SD_NS_4hashIS7_EENS_8equal_toIS7_EELb1EEENS_21__unordered_map_equalIS7_SD_SI_SG_Lb1EEENS5_ISD_EEE5beginEv, symObjAddr: 0x5570, symBinAddr: 0x10000A260, symSize: 0x40 }
  - { offsetInCU: 0xD9DD, offset: 0x3AD7E, size: 0x8, addend: 0x0, symName: __ZNSt3__125__hash_map_const_iteratorINS_21__hash_const_iteratorIPNS_11__hash_nodeINS_17__hash_value_typeINS_12basic_stringIcNS_11char_traitsIcEENS_9allocatorIcEEEENS_6vectorIP5StateNS7_ISC_EEEEEEPvEEEEEC1B7v160006ESJ_, symObjAddr: 0x55B0, symBinAddr: 0x10000A2A0, symSize: 0x30 }
  - { offsetInCU: 0xDA14, offset: 0x3ADB5, size: 0x8, addend: 0x0, symName: __ZNKSt3__117__compressed_pairINS_16__hash_node_baseIPNS_11__hash_nodeINS_17__hash_value_typeINS_12basic_stringIcNS_11char_traitsIcEENS_9allocatorIcEEEENS_6vectorIP5StateNS7_ISC_EEEEEEPvEEEENS7_ISH_EEE5firstB7v160006Ev, symObjAddr: 0x55E0, symBinAddr: 0x10000A2D0, symSize: 0x20 }
  - { offsetInCU: 0xDA38, offset: 0x3ADD9, size: 0x8, addend: 0x0, symName: __ZNSt3__121__hash_const_iteratorIPNS_11__hash_nodeINS_17__hash_value_typeINS_12basic_stringIcNS_11char_traitsIcEENS_9allocatorIcEEEENS_6vectorIP5StateNS6_ISB_EEEEEEPvEEEC1B7v160006EPNS_16__hash_node_baseISH_EEPKv, symObjAddr: 0x5600, symBinAddr: 0x10000A2F0, symSize: 0x30 }
  - { offsetInCU: 0xDA7E, offset: 0x3AE1F, size: 0x8, addend: 0x0, symName: __ZNKSt3__122__compressed_pair_elemINS_16__hash_node_baseIPNS_11__hash_nodeINS_17__hash_value_typeINS_12basic_stringIcNS_11char_traitsIcEENS_9allocatorIcEEEENS_6vectorIP5StateNS7_ISC_EEEEEEPvEEEELi0ELb0EE5__getB7v160006Ev, symObjAddr: 0x5630, symBinAddr: 0x10000A320, symSize: 0x10 }
  - { offsetInCU: 0xDAA2, offset: 0x3AE43, size: 0x8, addend: 0x0, symName: __ZNSt3__121__hash_const_iteratorIPNS_11__hash_nodeINS_17__hash_value_typeINS_12basic_stringIcNS_11char_traitsIcEENS_9allocatorIcEEEENS_6vectorIP5StateNS6_ISB_EEEEEEPvEEEC2B7v160006EPNS_16__hash_node_baseISH_EEPKv, symObjAddr: 0x5640, symBinAddr: 0x10000A330, symSize: 0x20 }
  - { offsetInCU: 0xDAE8, offset: 0x3AE89, size: 0x8, addend: 0x0, symName: __ZNSt3__125__hash_map_const_iteratorINS_21__hash_const_iteratorIPNS_11__hash_nodeINS_17__hash_value_typeINS_12basic_stringIcNS_11char_traitsIcEENS_9allocatorIcEEEENS_6vectorIP5StateNS7_ISC_EEEEEEPvEEEEEC2B7v160006ESJ_, symObjAddr: 0x5660, symBinAddr: 0x10000A350, symSize: 0x20 }
  - { offsetInCU: 0xDB1F, offset: 0x3AEC0, size: 0x8, addend: 0x0, symName: __ZNKSt3__112__hash_tableINS_17__hash_value_typeINS_12basic_stringIcNS_11char_traitsIcEENS_9allocatorIcEEEENS_6vectorIP5StateNS5_ISA_EEEEEENS_22__unordered_map_hasherIS7_SD_NS_4hashIS7_EENS_8equal_toIS7_EELb1EEENS_21__unordered_map_equalIS7_SD_SI_SG_Lb1EEENS5_ISD_EEE3endEv, symObjAddr: 0x5680, symBinAddr: 0x10000A370, symSize: 0x30 }
  - { offsetInCU: 0xDB45, offset: 0x3AEE6, size: 0x8, addend: 0x0, symName: __ZNSt3__112__hash_tableINS_12basic_stringIcNS_11char_traitsIcEENS_9allocatorIcEEEENS_4hashIS6_EENS_8equal_toIS6_EENS4_IS6_EEEaSERKSC_, symObjAddr: 0x56B0, symBinAddr: 0x10000A3A0, symSize: 0xB0 }
  - { offsetInCU: 0xDB7A, offset: 0x3AF1B, size: 0x8, addend: 0x0, symName: __ZNSt3__112__hash_tableINS_12basic_stringIcNS_11char_traitsIcEENS_9allocatorIcEEEENS_4hashIS6_EENS_8equal_toIS6_EENS4_IS6_EEE19__copy_assign_allocB7v160006ERKSC_, symObjAddr: 0x5760, symBinAddr: 0x10000A450, symSize: 0x30 }
  - { offsetInCU: 0xDBAD, offset: 0x3AF4E, size: 0x8, addend: 0x0, symName: __ZNKSt3__112__hash_tableINS_12basic_stringIcNS_11char_traitsIcEENS_9allocatorIcEEEENS_4hashIS6_EENS_8equal_toIS6_EENS4_IS6_EEE13hash_functionB7v160006Ev, symObjAddr: 0x5790, symBinAddr: 0x10000A480, symSize: 0x20 }
  - { offsetInCU: 0xDBD1, offset: 0x3AF72, size: 0x8, addend: 0x0, symName: __ZNSt3__112__hash_tableINS_12basic_stringIcNS_11char_traitsIcEENS_9allocatorIcEEEENS_4hashIS6_EENS_8equal_toIS6_EENS4_IS6_EEE13hash_functionB7v160006Ev, symObjAddr: 0x57B0, symBinAddr: 0x10000A4A0, symSize: 0x20 }
  - { offsetInCU: 0xDBF5, offset: 0x3AF96, size: 0x8, addend: 0x0, symName: __ZNKSt3__112__hash_tableINS_12basic_stringIcNS_11char_traitsIcEENS_9allocatorIcEEEENS_4hashIS6_EENS_8equal_toIS6_EENS4_IS6_EEE6key_eqB7v160006Ev, symObjAddr: 0x57D0, symBinAddr: 0x10000A4C0, symSize: 0x20 }
  - { offsetInCU: 0xDC19, offset: 0x3AFBA, size: 0x8, addend: 0x0, symName: __ZNSt3__112__hash_tableINS_12basic_stringIcNS_11char_traitsIcEENS_9allocatorIcEEEENS_4hashIS6_EENS_8equal_toIS6_EENS4_IS6_EEE6key_eqB7v160006Ev, symObjAddr: 0x57F0, symBinAddr: 0x10000A4E0, symSize: 0x20 }
  - { offsetInCU: 0xDC3D, offset: 0x3AFDE, size: 0x8, addend: 0x0, symName: __ZNKSt3__112__hash_tableINS_12basic_stringIcNS_11char_traitsIcEENS_9allocatorIcEEEENS_4hashIS6_EENS_8equal_toIS6_EENS4_IS6_EEE15max_load_factorB7v160006Ev, symObjAddr: 0x5810, symBinAddr: 0x10000A500, symSize: 0x30 }
  - { offsetInCU: 0xDC61, offset: 0x3B002, size: 0x8, addend: 0x0, symName: __ZNSt3__112__hash_tableINS_12basic_stringIcNS_11char_traitsIcEENS_9allocatorIcEEEENS_4hashIS6_EENS_8equal_toIS6_EENS4_IS6_EEE15max_load_factorB7v160006Ev, symObjAddr: 0x5840, symBinAddr: 0x10000A530, symSize: 0x20 }
  - { offsetInCU: 0xDC85, offset: 0x3B026, size: 0x8, addend: 0x0, symName: __ZNSt3__112__hash_tableINS_12basic_stringIcNS_11char_traitsIcEENS_9allocatorIcEEEENS_4hashIS6_EENS_8equal_toIS6_EENS4_IS6_EEE14__assign_multiINS_21__hash_const_iteratorIPNS_11__hash_nodeIS6_PvEEEEEEvT_SK_, symObjAddr: 0x5860, symBinAddr: 0x10000A550, symSize: 0x1C0 }
  - { offsetInCU: 0xDD04, offset: 0x3B0A5, size: 0x8, addend: 0x0, symName: __ZNKSt3__112__hash_tableINS_12basic_stringIcNS_11char_traitsIcEENS_9allocatorIcEEEENS_4hashIS6_EENS_8equal_toIS6_EENS4_IS6_EEE5beginEv, symObjAddr: 0x5A20, symBinAddr: 0x10000A710, symSize: 0x40 }
  - { offsetInCU: 0xDD2A, offset: 0x3B0CB, size: 0x8, addend: 0x0, symName: __ZNKSt3__112__hash_tableINS_12basic_stringIcNS_11char_traitsIcEENS_9allocatorIcEEEENS_4hashIS6_EENS_8equal_toIS6_EENS4_IS6_EEE3endEv, symObjAddr: 0x5A60, symBinAddr: 0x10000A750, symSize: 0x30 }
  - { offsetInCU: 0xDD50, offset: 0x3B0F1, size: 0x8, addend: 0x0, symName: __ZNSt3__112__hash_tableINS_12basic_stringIcNS_11char_traitsIcEENS_9allocatorIcEEEENS_4hashIS6_EENS_8equal_toIS6_EENS4_IS6_EEE19__copy_assign_allocB7v160006ERKSC_NS_17integral_constantIbLb0EEE, symObjAddr: 0x5A90, symBinAddr: 0x10000A780, symSize: 0x10 }
  - { offsetInCU: 0xDD8C, offset: 0x3B12D, size: 0x8, addend: 0x0, symName: __ZNKSt3__117__compressed_pairImNS_4hashINS_12basic_stringIcNS_11char_traitsIcEENS_9allocatorIcEEEEEEE6secondB7v160006Ev, symObjAddr: 0x5AA0, symBinAddr: 0x10000A790, symSize: 0x20 }
  - { offsetInCU: 0xDDB0, offset: 0x3B151, size: 0x8, addend: 0x0, symName: __ZNKSt3__122__compressed_pair_elemINS_4hashINS_12basic_stringIcNS_11char_traitsIcEENS_9allocatorIcEEEEEELi1ELb1EE5__getB7v160006Ev, symObjAddr: 0x5AC0, symBinAddr: 0x10000A7B0, symSize: 0x10 }
  - { offsetInCU: 0xDDD4, offset: 0x3B175, size: 0x8, addend: 0x0, symName: __ZNSt3__117__compressed_pairImNS_4hashINS_12basic_stringIcNS_11char_traitsIcEENS_9allocatorIcEEEEEEE6secondB7v160006Ev, symObjAddr: 0x5AD0, symBinAddr: 0x10000A7C0, symSize: 0x20 }
  - { offsetInCU: 0xDDF8, offset: 0x3B199, size: 0x8, addend: 0x0, symName: __ZNSt3__122__compressed_pair_elemINS_4hashINS_12basic_stringIcNS_11char_traitsIcEENS_9allocatorIcEEEEEELi1ELb1EE5__getB7v160006Ev, symObjAddr: 0x5AF0, symBinAddr: 0x10000A7E0, symSize: 0x10 }
  - { offsetInCU: 0xDE1C, offset: 0x3B1BD, size: 0x8, addend: 0x0, symName: __ZNKSt3__117__compressed_pairIfNS_8equal_toINS_12basic_stringIcNS_11char_traitsIcEENS_9allocatorIcEEEEEEE6secondB7v160006Ev, symObjAddr: 0x5B00, symBinAddr: 0x10000A7F0, symSize: 0x20 }
  - { offsetInCU: 0xDE40, offset: 0x3B1E1, size: 0x8, addend: 0x0, symName: __ZNKSt3__122__compressed_pair_elemINS_8equal_toINS_12basic_stringIcNS_11char_traitsIcEENS_9allocatorIcEEEEEELi1ELb1EE5__getB7v160006Ev, symObjAddr: 0x5B20, symBinAddr: 0x10000A810, symSize: 0x10 }
  - { offsetInCU: 0xDE64, offset: 0x3B205, size: 0x8, addend: 0x0, symName: __ZNSt3__117__compressed_pairIfNS_8equal_toINS_12basic_stringIcNS_11char_traitsIcEENS_9allocatorIcEEEEEEE6secondB7v160006Ev, symObjAddr: 0x5B30, symBinAddr: 0x10000A820, symSize: 0x20 }
  - { offsetInCU: 0xDE88, offset: 0x3B229, size: 0x8, addend: 0x0, symName: __ZNSt3__122__compressed_pair_elemINS_8equal_toINS_12basic_stringIcNS_11char_traitsIcEENS_9allocatorIcEEEEEELi1ELb1EE5__getB7v160006Ev, symObjAddr: 0x5B50, symBinAddr: 0x10000A840, symSize: 0x10 }
  - { offsetInCU: 0xDEAC, offset: 0x3B24D, size: 0x8, addend: 0x0, symName: __ZNKSt3__117__compressed_pairIfNS_8equal_toINS_12basic_stringIcNS_11char_traitsIcEENS_9allocatorIcEEEEEEE5firstB7v160006Ev, symObjAddr: 0x5B60, symBinAddr: 0x10000A850, symSize: 0x20 }
  - { offsetInCU: 0xDED0, offset: 0x3B271, size: 0x8, addend: 0x0, symName: __ZNSt3__117__compressed_pairIfNS_8equal_toINS_12basic_stringIcNS_11char_traitsIcEENS_9allocatorIcEEEEEEE5firstB7v160006Ev, symObjAddr: 0x5B80, symBinAddr: 0x10000A870, symSize: 0x20 }
  - { offsetInCU: 0xDEF4, offset: 0x3B295, size: 0x8, addend: 0x0, symName: __ZNKSt3__112__hash_tableINS_12basic_stringIcNS_11char_traitsIcEENS_9allocatorIcEEEENS_4hashIS6_EENS_8equal_toIS6_EENS4_IS6_EEE12bucket_countB7v160006Ev, symObjAddr: 0x5BA0, symBinAddr: 0x10000A890, symSize: 0x30 }
  - { offsetInCU: 0xDF18, offset: 0x3B2B9, size: 0x8, addend: 0x0, symName: __ZNSt3__112__hash_tableINS_12basic_stringIcNS_11char_traitsIcEENS_9allocatorIcEEEENS_4hashIS6_EENS_8equal_toIS6_EENS4_IS6_EEE8__detachEv, symObjAddr: 0x5BD0, symBinAddr: 0x10000A8C0, symSize: 0xC0 }
  - { offsetInCU: 0xDF79, offset: 0x3B31A, size: 0x8, addend: 0x0, symName: __ZNKSt3__121__hash_const_iteratorIPNS_11__hash_nodeINS_12basic_stringIcNS_11char_traitsIcEENS_9allocatorIcEEEEPvEEEdeB7v160006Ev, symObjAddr: 0x5CC0, symBinAddr: 0x10000A9B0, symSize: 0x30 }
  - { offsetInCU: 0xDF9D, offset: 0x3B33E, size: 0x8, addend: 0x0, symName: __ZNSt3__112__hash_tableINS_12basic_stringIcNS_11char_traitsIcEENS_9allocatorIcEEEENS_4hashIS6_EENS_8equal_toIS6_EENS4_IS6_EEE19__node_insert_multiEPNS_11__hash_nodeIS6_PvEE, symObjAddr: 0x5CF0, symBinAddr: 0x10000A9E0, symSize: 0x90 }
  - { offsetInCU: 0xDFE1, offset: 0x3B382, size: 0x8, addend: 0x0, symName: __ZNSt3__121__hash_const_iteratorIPNS_11__hash_nodeINS_12basic_stringIcNS_11char_traitsIcEENS_9allocatorIcEEEEPvEEEppB7v160006Ev, symObjAddr: 0x5D80, symBinAddr: 0x10000AA70, symSize: 0x20 }
  - { offsetInCU: 0xE005, offset: 0x3B3A6, size: 0x8, addend: 0x0, symName: __ZNSt3__112__hash_tableINS_12basic_stringIcNS_11char_traitsIcEENS_9allocatorIcEEEENS_4hashIS6_EENS_8equal_toIS6_EENS4_IS6_EEE14__insert_multiB7v160006IRKS6_EENS_15__hash_iteratorIPNS_11__hash_nodeIS6_PvEEEEOT_, symObjAddr: 0x5DA0, symBinAddr: 0x10000AA90, symSize: 0x30 }
  - { offsetInCU: 0xE041, offset: 0x3B3E2, size: 0x8, addend: 0x0, symName: __ZNSt3__122__hash_key_value_typesINS_12basic_stringIcNS_11char_traitsIcEENS_9allocatorIcEEEEE11__get_valueB7v160006ERKS6_, symObjAddr: 0x5DD0, symBinAddr: 0x10000AAC0, symSize: 0x10 }
  - { offsetInCU: 0xE063, offset: 0x3B404, size: 0x8, addend: 0x0, symName: __ZNKSt3__110unique_ptrIA_PNS_16__hash_node_baseIPNS_11__hash_nodeINS_12basic_stringIcNS_11char_traitsIcEENS_9allocatorIcEEEEPvEEEENS_25__bucket_list_deallocatorINS6_ISD_EEEEE11get_deleterB7v160006Ev, symObjAddr: 0x5DE0, symBinAddr: 0x10000AAD0, symSize: 0x20 }
  - { offsetInCU: 0xE087, offset: 0x3B428, size: 0x8, addend: 0x0, symName: __ZNKSt3__125__bucket_list_deallocatorINS_9allocatorIPNS_16__hash_node_baseIPNS_11__hash_nodeINS_12basic_stringIcNS_11char_traitsIcEENS1_IcEEEEPvEEEEEEE4sizeB7v160006Ev, symObjAddr: 0x5E00, symBinAddr: 0x10000AAF0, symSize: 0x20 }
  - { offsetInCU: 0xE0AB, offset: 0x3B44C, size: 0x8, addend: 0x0, symName: __ZNKSt3__117__compressed_pairIPPNS_16__hash_node_baseIPNS_11__hash_nodeINS_12basic_stringIcNS_11char_traitsIcEENS_9allocatorIcEEEEPvEEEENS_25__bucket_list_deallocatorINS6_ISD_EEEEE6secondB7v160006Ev, symObjAddr: 0x5E20, symBinAddr: 0x10000AB10, symSize: 0x20 }
  - { offsetInCU: 0xE0CF, offset: 0x3B470, size: 0x8, addend: 0x0, symName: __ZNKSt3__122__compressed_pair_elemINS_25__bucket_list_deallocatorINS_9allocatorIPNS_16__hash_node_baseIPNS_11__hash_nodeINS_12basic_stringIcNS_11char_traitsIcEENS2_IcEEEEPvEEEEEEEELi1ELb0EE5__getB7v160006Ev, symObjAddr: 0x5E40, symBinAddr: 0x10000AB30, symSize: 0x10 }
  - { offsetInCU: 0xE0F3, offset: 0x3B494, size: 0x8, addend: 0x0, symName: __ZNKSt3__117__compressed_pairImNS_9allocatorIPNS_16__hash_node_baseIPNS_11__hash_nodeINS_12basic_stringIcNS_11char_traitsIcEENS1_IcEEEEPvEEEEEEE5firstB7v160006Ev, symObjAddr: 0x5E50, symBinAddr: 0x10000AB40, symSize: 0x20 }
  - { offsetInCU: 0xE117, offset: 0x3B4B8, size: 0x8, addend: 0x0, symName: __ZNKSt3__110unique_ptrIA_PNS_16__hash_node_baseIPNS_11__hash_nodeINS_12basic_stringIcNS_11char_traitsIcEENS_9allocatorIcEEEEPvEEEENS_25__bucket_list_deallocatorINS6_ISD_EEEEEixB7v160006Em, symObjAddr: 0x5E70, symBinAddr: 0x10000AB60, symSize: 0x30 }
  - { offsetInCU: 0xE14A, offset: 0x3B4EB, size: 0x8, addend: 0x0, symName: __ZNSt3__112__hash_tableINS_12basic_stringIcNS_11char_traitsIcEENS_9allocatorIcEEEENS_4hashIS6_EENS_8equal_toIS6_EENS4_IS6_EEE4sizeB7v160006Ev, symObjAddr: 0x5EA0, symBinAddr: 0x10000AB90, symSize: 0x20 }
  - { offsetInCU: 0xE16E, offset: 0x3B50F, size: 0x8, addend: 0x0, symName: __ZNKSt3__117__compressed_pairIPPNS_16__hash_node_baseIPNS_11__hash_nodeINS_12basic_stringIcNS_11char_traitsIcEENS_9allocatorIcEEEEPvEEEENS_25__bucket_list_deallocatorINS6_ISD_EEEEE5firstB7v160006Ev, symObjAddr: 0x5EC0, symBinAddr: 0x10000ABB0, symSize: 0x20 }
  - { offsetInCU: 0xE192, offset: 0x3B533, size: 0x8, addend: 0x0, symName: __ZNKSt3__122__compressed_pair_elemIPPNS_16__hash_node_baseIPNS_11__hash_nodeINS_12basic_stringIcNS_11char_traitsIcEENS_9allocatorIcEEEEPvEEEELi0ELb0EE5__getB7v160006Ev, symObjAddr: 0x5EE0, symBinAddr: 0x10000ABD0, symSize: 0x10 }
  - { offsetInCU: 0xE1B6, offset: 0x3B557, size: 0x8, addend: 0x0, symName: __ZNSt3__117__compressed_pairImNS_4hashINS_12basic_stringIcNS_11char_traitsIcEENS_9allocatorIcEEEEEEE5firstB7v160006Ev, symObjAddr: 0x5EF0, symBinAddr: 0x10000ABE0, symSize: 0x20 }
  - { offsetInCU: 0xE1DA, offset: 0x3B57B, size: 0x8, addend: 0x0, symName: __ZNSt3__112__hash_tableINS_12basic_stringIcNS_11char_traitsIcEENS_9allocatorIcEEEENS_4hashIS6_EENS_8equal_toIS6_EENS4_IS6_EEE27__node_insert_multi_prepareEmRS6_, symObjAddr: 0x5F10, symBinAddr: 0x10000AC00, symSize: 0x300 }
  - { offsetInCU: 0xE269, offset: 0x3B60A, size: 0x8, addend: 0x0, symName: __ZNKSt3__116__hash_node_baseIPNS_11__hash_nodeINS_12basic_stringIcNS_11char_traitsIcEENS_9allocatorIcEEEEPvEEE6__hashB7v160006Ev, symObjAddr: 0x6210, symBinAddr: 0x10000AF00, symSize: 0x20 }
  - { offsetInCU: 0xE28D, offset: 0x3B62E, size: 0x8, addend: 0x0, symName: __ZNSt3__112__hash_tableINS_12basic_stringIcNS_11char_traitsIcEENS_9allocatorIcEEEENS_4hashIS6_EENS_8equal_toIS6_EENS4_IS6_EEE27__node_insert_multi_performEPNS_11__hash_nodeIS6_PvEEPNS_16__hash_node_baseISG_EE, symObjAddr: 0x6230, symBinAddr: 0x10000AF20, symSize: 0x190 }
  - { offsetInCU: 0xE30C, offset: 0x3B6AD, size: 0x8, addend: 0x0, symName: __ZNSt3__116__hash_node_baseIPNS_11__hash_nodeINS_12basic_stringIcNS_11char_traitsIcEENS_9allocatorIcEEEEPvEEE5__ptrB7v160006Ev, symObjAddr: 0x63C0, symBinAddr: 0x10000B0B0, symSize: 0x20 }
  - { offsetInCU: 0xE330, offset: 0x3B6D1, size: 0x8, addend: 0x0, symName: __ZNSt3__115__hash_iteratorIPNS_11__hash_nodeINS_12basic_stringIcNS_11char_traitsIcEENS_9allocatorIcEEEEPvEEEC1B7v160006EPNS_16__hash_node_baseISA_EEPKv, symObjAddr: 0x63E0, symBinAddr: 0x10000B0D0, symSize: 0x30 }
  - { offsetInCU: 0xE376, offset: 0x3B717, size: 0x8, addend: 0x0, symName: __ZNSt3__112__hash_tableINS_12basic_stringIcNS_11char_traitsIcEENS_9allocatorIcEEEENS_4hashIS6_EENS_8equal_toIS6_EENS4_IS6_EEE14__rehash_multiB7v160006Em, symObjAddr: 0x6410, symBinAddr: 0x10000B100, symSize: 0x30 }
  - { offsetInCU: 0xE3A9, offset: 0x3B74A, size: 0x8, addend: 0x0, symName: __ZNSt3__112__hash_tableINS_12basic_stringIcNS_11char_traitsIcEENS_9allocatorIcEEEENS_4hashIS6_EENS_8equal_toIS6_EENS4_IS6_EEE8__rehashILb0EEEvm, symObjAddr: 0x6440, symBinAddr: 0x10000B130, symSize: 0x230 }
  - { offsetInCU: 0xE3F7, offset: 0x3B798, size: 0x8, addend: 0x0, symName: __ZNSt3__112__hash_tableINS_12basic_stringIcNS_11char_traitsIcEENS_9allocatorIcEEEENS_4hashIS6_EENS_8equal_toIS6_EENS4_IS6_EEE11__do_rehashILb0EEEvm, symObjAddr: 0x6670, symBinAddr: 0x10000B360, symSize: 0x2E0 }
  - { offsetInCU: 0xE4D8, offset: 0x3B879, size: 0x8, addend: 0x0, symName: __ZNSt3__110unique_ptrIA_PNS_16__hash_node_baseIPNS_11__hash_nodeINS_12basic_stringIcNS_11char_traitsIcEENS_9allocatorIcEEEEPvEEEENS_25__bucket_list_deallocatorINS6_ISD_EEEEE11get_deleterB7v160006Ev, symObjAddr: 0x6960, symBinAddr: 0x10000B650, symSize: 0x20 }
  - { offsetInCU: 0xE4FC, offset: 0x3B89D, size: 0x8, addend: 0x0, symName: __ZNSt3__110unique_ptrIA_PNS_16__hash_node_baseIPNS_11__hash_nodeINS_12basic_stringIcNS_11char_traitsIcEENS_9allocatorIcEEEEPvEEEENS_25__bucket_list_deallocatorINS6_ISD_EEEEE5resetB7v160006IPSD_EENS_9enable_ifIXsr28_CheckArrayPointerConversionIT_EE5valueEvE4typeESM_, symObjAddr: 0x6980, symBinAddr: 0x10000B670, symSize: 0x70 }
  - { offsetInCU: 0xE547, offset: 0x3B8E8, size: 0x8, addend: 0x0, symName: __ZNSt3__116allocator_traitsINS_9allocatorIPNS_16__hash_node_baseIPNS_11__hash_nodeINS_12basic_stringIcNS_11char_traitsIcEENS1_IcEEEEPvEEEEEEE8allocateB7v160006ERSE_m, symObjAddr: 0x69F0, symBinAddr: 0x10000B6E0, symSize: 0x30 }
  - { offsetInCU: 0xE579, offset: 0x3B91A, size: 0x8, addend: 0x0, symName: __ZNSt3__19allocatorIPNS_16__hash_node_baseIPNS_11__hash_nodeINS_12basic_stringIcNS_11char_traitsIcEENS0_IcEEEEPvEEEEE8allocateB7v160006Em, symObjAddr: 0x6A20, symBinAddr: 0x10000B710, symSize: 0x80 }
  - { offsetInCU: 0xE5B5, offset: 0x3B956, size: 0x8, addend: 0x0, symName: __ZNSt3__116allocator_traitsINS_9allocatorIPNS_16__hash_node_baseIPNS_11__hash_nodeINS_12basic_stringIcNS_11char_traitsIcEENS1_IcEEEEPvEEEEEEE8max_sizeB7v160006ISE_vEEmRKSE_, symObjAddr: 0x6AA0, symBinAddr: 0x10000B790, symSize: 0x20 }
  - { offsetInCU: 0xE5E2, offset: 0x3B983, size: 0x8, addend: 0x0, symName: __ZNKSt3__19allocatorIPNS_16__hash_node_baseIPNS_11__hash_nodeINS_12basic_stringIcNS_11char_traitsIcEENS0_IcEEEEPvEEEEE8max_sizeB7v160006Ev, symObjAddr: 0x6AC0, symBinAddr: 0x10000B7B0, symSize: 0x20 }
  - { offsetInCU: 0xE606, offset: 0x3B9A7, size: 0x8, addend: 0x0, symName: __ZNSt3__115__hash_iteratorIPNS_11__hash_nodeINS_12basic_stringIcNS_11char_traitsIcEENS_9allocatorIcEEEEPvEEEC2B7v160006EPNS_16__hash_node_baseISA_EEPKv, symObjAddr: 0x6AE0, symBinAddr: 0x10000B7D0, symSize: 0x20 }
  - { offsetInCU: 0xE64C, offset: 0x3B9ED, size: 0x8, addend: 0x0, symName: __ZNSt3__112__hash_tableINS_12basic_stringIcNS_11char_traitsIcEENS_9allocatorIcEEEENS_4hashIS6_EENS_8equal_toIS6_EENS4_IS6_EEE15__emplace_multiIJRKS6_EEENS_15__hash_iteratorIPNS_11__hash_nodeIS6_PvEEEEDpOT_, symObjAddr: 0x6B00, symBinAddr: 0x10000B7F0, symSize: 0xA0 }
  - { offsetInCU: 0xE6AA, offset: 0x3BA4B, size: 0x8, addend: 0x0, symName: __ZNSt3__112__hash_tableINS_12basic_stringIcNS_11char_traitsIcEENS_9allocatorIcEEEENS_4hashIS6_EENS_8equal_toIS6_EENS4_IS6_EEE16__construct_nodeIJRKS6_EEENS_10unique_ptrINS_11__hash_nodeIS6_PvEENS_22__hash_node_destructorINS4_ISJ_EEEEEEDpOT_, symObjAddr: 0x6BA0, symBinAddr: 0x10000B890, symSize: 0x160 }
  - { offsetInCU: 0xE709, offset: 0x3BAAA, size: 0x8, addend: 0x0, symName: __ZNKSt3__110unique_ptrINS_11__hash_nodeINS_12basic_stringIcNS_11char_traitsIcEENS_9allocatorIcEEEEPvEENS_22__hash_node_destructorINS5_IS9_EEEEE3getB7v160006Ev, symObjAddr: 0x6D00, symBinAddr: 0x10000B9F0, symSize: 0x20 }
  - { offsetInCU: 0xE72D, offset: 0x3BACE, size: 0x8, addend: 0x0, symName: __ZNSt3__110unique_ptrINS_11__hash_nodeINS_12basic_stringIcNS_11char_traitsIcEENS_9allocatorIcEEEEPvEENS_22__hash_node_destructorINS5_IS9_EEEEE7releaseB7v160006Ev, symObjAddr: 0x6D20, symBinAddr: 0x10000BA10, symSize: 0x40 }
  - { offsetInCU: 0xE760, offset: 0x3BB01, size: 0x8, addend: 0x0, symName: __ZNSt3__110unique_ptrINS_11__hash_nodeINS_12basic_stringIcNS_11char_traitsIcEENS_9allocatorIcEEEEPvEENS_22__hash_node_destructorINS5_IS9_EEEEED1B7v160006Ev, symObjAddr: 0x6D60, symBinAddr: 0x10000BA50, symSize: 0x20 }
  - { offsetInCU: 0xE788, offset: 0x3BB29, size: 0x8, addend: 0x0, symName: __ZNSt3__116allocator_traitsINS_9allocatorINS_11__hash_nodeINS_12basic_stringIcNS_11char_traitsIcEENS1_IcEEEEPvEEEEE8allocateB7v160006ERSA_m, symObjAddr: 0x6D80, symBinAddr: 0x10000BA70, symSize: 0x30 }
  - { offsetInCU: 0xE7BA, offset: 0x3BB5B, size: 0x8, addend: 0x0, symName: __ZNSt3__122__hash_node_destructorINS_9allocatorINS_11__hash_nodeINS_12basic_stringIcNS_11char_traitsIcEENS1_IcEEEEPvEEEEEC1B7v160006ERSA_b, symObjAddr: 0x6DB0, symBinAddr: 0x10000BAA0, symSize: 0x40 }
  - { offsetInCU: 0xE805, offset: 0x3BBA6, size: 0x8, addend: 0x0, symName: __ZNSt3__110unique_ptrINS_11__hash_nodeINS_12basic_stringIcNS_11char_traitsIcEENS_9allocatorIcEEEEPvEENS_22__hash_node_destructorINS5_IS9_EEEEEC1B7v160006ILb1EvEEPS9_NS_16__dependent_typeINS_27__unique_ptr_deleter_sfinaeISC_EEXT_EE20__good_rval_ref_typeE, symObjAddr: 0x6DF0, symBinAddr: 0x10000BAE0, symSize: 0x30 }
  - { offsetInCU: 0xE854, offset: 0x3BBF5, size: 0x8, addend: 0x0, symName: __ZNSt3__116allocator_traitsINS_9allocatorINS_11__hash_nodeINS_12basic_stringIcNS_11char_traitsIcEENS1_IcEEEEPvEEEEE9constructB7v160006IS7_JRKS7_EvEEvRSA_PT_DpOT0_, symObjAddr: 0x6E20, symBinAddr: 0x10000BB10, symSize: 0x30 }
  - { offsetInCU: 0xE8AA, offset: 0x3BC4B, size: 0x8, addend: 0x0, symName: __ZNKSt3__110unique_ptrINS_11__hash_nodeINS_12basic_stringIcNS_11char_traitsIcEENS_9allocatorIcEEEEPvEENS_22__hash_node_destructorINS5_IS9_EEEEEptB7v160006Ev, symObjAddr: 0x6E50, symBinAddr: 0x10000BB40, symSize: 0x20 }
  - { offsetInCU: 0xE8CE, offset: 0x3BC6F, size: 0x8, addend: 0x0, symName: __ZNSt3__110unique_ptrINS_11__hash_nodeINS_12basic_stringIcNS_11char_traitsIcEENS_9allocatorIcEEEEPvEENS_22__hash_node_destructorINS5_IS9_EEEEE11get_deleterB7v160006Ev, symObjAddr: 0x6E70, symBinAddr: 0x10000BB60, symSize: 0x20 }
  - { offsetInCU: 0xE8F2, offset: 0x3BC93, size: 0x8, addend: 0x0, symName: __ZNSt3__19allocatorINS_11__hash_nodeINS_12basic_stringIcNS_11char_traitsIcEENS0_IcEEEEPvEEE8allocateB7v160006Em, symObjAddr: 0x6E90, symBinAddr: 0x10000BB80, symSize: 0x80 }
  - { offsetInCU: 0xE92E, offset: 0x3BCCF, size: 0x8, addend: 0x0, symName: __ZNSt3__116allocator_traitsINS_9allocatorINS_11__hash_nodeINS_12basic_stringIcNS_11char_traitsIcEENS1_IcEEEEPvEEEEE8max_sizeB7v160006ISA_vEEmRKSA_, symObjAddr: 0x6F10, symBinAddr: 0x10000BC00, symSize: 0x20 }
  - { offsetInCU: 0xE95B, offset: 0x3BCFC, size: 0x8, addend: 0x0, symName: __ZNKSt3__19allocatorINS_11__hash_nodeINS_12basic_stringIcNS_11char_traitsIcEENS0_IcEEEEPvEEE8max_sizeB7v160006Ev, symObjAddr: 0x6F30, symBinAddr: 0x10000BC20, symSize: 0x20 }
  - { offsetInCU: 0xE97F, offset: 0x3BD20, size: 0x8, addend: 0x0, symName: __ZNSt3__122__hash_node_destructorINS_9allocatorINS_11__hash_nodeINS_12basic_stringIcNS_11char_traitsIcEENS1_IcEEEEPvEEEEEC2B7v160006ERSA_b, symObjAddr: 0x6F50, symBinAddr: 0x10000BC40, symSize: 0x30 }
  - { offsetInCU: 0xE9C5, offset: 0x3BD66, size: 0x8, addend: 0x0, symName: __ZNSt3__110unique_ptrINS_11__hash_nodeINS_12basic_stringIcNS_11char_traitsIcEENS_9allocatorIcEEEEPvEENS_22__hash_node_destructorINS5_IS9_EEEEEC2B7v160006ILb1EvEEPS9_NS_16__dependent_typeINS_27__unique_ptr_deleter_sfinaeISC_EEXT_EE20__good_rval_ref_typeE, symObjAddr: 0x6F80, symBinAddr: 0x10000BC70, symSize: 0x50 }
  - { offsetInCU: 0xEA14, offset: 0x3BDB5, size: 0x8, addend: 0x0, symName: __ZNSt3__117__compressed_pairIPNS_11__hash_nodeINS_12basic_stringIcNS_11char_traitsIcEENS_9allocatorIcEEEEPvEENS_22__hash_node_destructorINS5_IS9_EEEEEC1B7v160006IRSA_SD_EEOT_OT0_, symObjAddr: 0x6FD0, symBinAddr: 0x10000BCC0, symSize: 0x30 }
  - { offsetInCU: 0xEA6A, offset: 0x3BE0B, size: 0x8, addend: 0x0, symName: __ZNSt3__117__compressed_pairIPNS_11__hash_nodeINS_12basic_stringIcNS_11char_traitsIcEENS_9allocatorIcEEEEPvEENS_22__hash_node_destructorINS5_IS9_EEEEEC2B7v160006IRSA_SD_EEOT_OT0_, symObjAddr: 0x7000, symBinAddr: 0x10000BCF0, symSize: 0x40 }
  - { offsetInCU: 0xEAC0, offset: 0x3BE61, size: 0x8, addend: 0x0, symName: __ZNSt3__122__compressed_pair_elemIPNS_11__hash_nodeINS_12basic_stringIcNS_11char_traitsIcEENS_9allocatorIcEEEEPvEELi0ELb0EEC2B7v160006IRSA_vEEOT_, symObjAddr: 0x7040, symBinAddr: 0x10000BD30, symSize: 0x20 }
  - { offsetInCU: 0xEB00, offset: 0x3BEA1, size: 0x8, addend: 0x0, symName: __ZNSt3__122__compressed_pair_elemINS_22__hash_node_destructorINS_9allocatorINS_11__hash_nodeINS_12basic_stringIcNS_11char_traitsIcEENS2_IcEEEEPvEEEEEELi1ELb0EEC2B7v160006ISC_vEEOT_, symObjAddr: 0x7060, symBinAddr: 0x10000BD50, symSize: 0x30 }
  - { offsetInCU: 0xEB40, offset: 0x3BEE1, size: 0x8, addend: 0x0, symName: __ZNSt3__19allocatorINS_11__hash_nodeINS_12basic_stringIcNS_11char_traitsIcEENS0_IcEEEEPvEEE9constructB7v160006IS6_JRKS6_EEEvPT_DpOT0_, symObjAddr: 0x7090, symBinAddr: 0x10000BD80, symSize: 0x30 }
  - { offsetInCU: 0xEB94, offset: 0x3BF35, size: 0x8, addend: 0x0, symName: __ZNKSt3__117__compressed_pairIPNS_11__hash_nodeINS_12basic_stringIcNS_11char_traitsIcEENS_9allocatorIcEEEEPvEENS_22__hash_node_destructorINS5_IS9_EEEEE5firstB7v160006Ev, symObjAddr: 0x70C0, symBinAddr: 0x10000BDB0, symSize: 0x20 }
  - { offsetInCU: 0xEBB8, offset: 0x3BF59, size: 0x8, addend: 0x0, symName: __ZNKSt3__122__compressed_pair_elemIPNS_11__hash_nodeINS_12basic_stringIcNS_11char_traitsIcEENS_9allocatorIcEEEEPvEELi0ELb0EE5__getB7v160006Ev, symObjAddr: 0x70E0, symBinAddr: 0x10000BDD0, symSize: 0x10 }
  - { offsetInCU: 0xEBDC, offset: 0x3BF7D, size: 0x8, addend: 0x0, symName: __ZNSt3__117__compressed_pairIPNS_11__hash_nodeINS_12basic_stringIcNS_11char_traitsIcEENS_9allocatorIcEEEEPvEENS_22__hash_node_destructorINS5_IS9_EEEEE6secondB7v160006Ev, symObjAddr: 0x70F0, symBinAddr: 0x10000BDE0, symSize: 0x20 }
  - { offsetInCU: 0xEC00, offset: 0x3BFA1, size: 0x8, addend: 0x0, symName: __ZNSt3__122__compressed_pair_elemINS_22__hash_node_destructorINS_9allocatorINS_11__hash_nodeINS_12basic_stringIcNS_11char_traitsIcEENS2_IcEEEEPvEEEEEELi1ELb0EE5__getB7v160006Ev, symObjAddr: 0x7110, symBinAddr: 0x10000BE00, symSize: 0x10 }
  - { offsetInCU: 0xEC24, offset: 0x3BFC5, size: 0x8, addend: 0x0, symName: __ZNSt3__117__compressed_pairIPNS_11__hash_nodeINS_12basic_stringIcNS_11char_traitsIcEENS_9allocatorIcEEEEPvEENS_22__hash_node_destructorINS5_IS9_EEEEE5firstB7v160006Ev, symObjAddr: 0x7120, symBinAddr: 0x10000BE10, symSize: 0x20 }
  - { offsetInCU: 0xEC48, offset: 0x3BFE9, size: 0x8, addend: 0x0, symName: __ZNSt3__122__compressed_pair_elemIPNS_11__hash_nodeINS_12basic_stringIcNS_11char_traitsIcEENS_9allocatorIcEEEEPvEELi0ELb0EE5__getB7v160006Ev, symObjAddr: 0x7140, symBinAddr: 0x10000BE30, symSize: 0x10 }
  - { offsetInCU: 0xEC6C, offset: 0x3C00D, size: 0x8, addend: 0x0, symName: __ZNSt3__110unique_ptrINS_11__hash_nodeINS_12basic_stringIcNS_11char_traitsIcEENS_9allocatorIcEEEEPvEENS_22__hash_node_destructorINS5_IS9_EEEEED2B7v160006Ev, symObjAddr: 0x7150, symBinAddr: 0x10000BE40, symSize: 0x20 }
  - { offsetInCU: 0xEC94, offset: 0x3C035, size: 0x8, addend: 0x0, symName: __ZNSt3__110unique_ptrINS_11__hash_nodeINS_12basic_stringIcNS_11char_traitsIcEENS_9allocatorIcEEEEPvEENS_22__hash_node_destructorINS5_IS9_EEEEE5resetB7v160006EPS9_, symObjAddr: 0x7170, symBinAddr: 0x10000BE60, symSize: 0x70 }
  - { offsetInCU: 0xECD6, offset: 0x3C077, size: 0x8, addend: 0x0, symName: __ZNSt3__122__hash_node_destructorINS_9allocatorINS_11__hash_nodeINS_12basic_stringIcNS_11char_traitsIcEENS1_IcEEEEPvEEEEEclB7v160006EPS9_, symObjAddr: 0x71E0, symBinAddr: 0x10000BED0, symSize: 0x90 }
  - { offsetInCU: 0xED09, offset: 0x3C0AA, size: 0x8, addend: 0x0, symName: __ZNKSt3__117__compressed_pairINS_16__hash_node_baseIPNS_11__hash_nodeINS_12basic_stringIcNS_11char_traitsIcEENS_9allocatorIcEEEEPvEEEENS6_ISA_EEE5firstB7v160006Ev, symObjAddr: 0x7270, symBinAddr: 0x10000BF60, symSize: 0x20 }
  - { offsetInCU: 0xED2D, offset: 0x3C0CE, size: 0x8, addend: 0x0, symName: __ZNSt3__121__hash_const_iteratorIPNS_11__hash_nodeINS_12basic_stringIcNS_11char_traitsIcEENS_9allocatorIcEEEEPvEEEC1B7v160006EPNS_16__hash_node_baseISA_EEPKv, symObjAddr: 0x7290, symBinAddr: 0x10000BF80, symSize: 0x30 }
  - { offsetInCU: 0xED73, offset: 0x3C114, size: 0x8, addend: 0x0, symName: __ZNKSt3__122__compressed_pair_elemINS_16__hash_node_baseIPNS_11__hash_nodeINS_12basic_stringIcNS_11char_traitsIcEENS_9allocatorIcEEEEPvEEEELi0ELb0EE5__getB7v160006Ev, symObjAddr: 0x72C0, symBinAddr: 0x10000BFB0, symSize: 0x10 }
  - { offsetInCU: 0xED97, offset: 0x3C138, size: 0x8, addend: 0x0, symName: __ZNSt3__121__hash_const_iteratorIPNS_11__hash_nodeINS_12basic_stringIcNS_11char_traitsIcEENS_9allocatorIcEEEEPvEEEC2B7v160006EPNS_16__hash_node_baseISA_EEPKv, symObjAddr: 0x72D0, symBinAddr: 0x10000BFC0, symSize: 0x20 }
  - { offsetInCU: 0xEDDD, offset: 0x3C17E, size: 0x8, addend: 0x0, symName: __ZNSt3__112basic_stringIcNS_11char_traitsIcEENS_9allocatorIcEEEC2B7v160006IDnEEPKc, symObjAddr: 0x72F0, symBinAddr: 0x10000BFE0, symSize: 0x60 }
  - { offsetInCU: 0xEE19, offset: 0x3C1BA, size: 0x8, addend: 0x0, symName: __ZNSt3__112__hash_tableINS_12basic_stringIcNS_11char_traitsIcEENS_9allocatorIcEEEENS_4hashIS6_EENS_8equal_toIS6_EENS4_IS6_EEE15__insert_uniqueB7v160006ERKS6_, symObjAddr: 0x7480, symBinAddr: 0x10000C040, symSize: 0x50 }
  - { offsetInCU: 0xEE4C, offset: 0x3C1ED, size: 0x8, addend: 0x0, symName: __ZNSt3__14pairINS_21__hash_const_iteratorIPNS_11__hash_nodeINS_12basic_stringIcNS_11char_traitsIcEENS_9allocatorIcEEEEPvEEEEbEC1B7v160006INS_15__hash_iteratorISB_EEbEERKNS0_IT_T0_EE, symObjAddr: 0x74D0, symBinAddr: 0x10000C090, symSize: 0x30 }
  - { offsetInCU: 0xEE94, offset: 0x3C235, size: 0x8, addend: 0x0, symName: __ZNSt3__112__hash_tableINS_12basic_stringIcNS_11char_traitsIcEENS_9allocatorIcEEEENS_4hashIS6_EENS_8equal_toIS6_EENS4_IS6_EEE25__emplace_unique_key_argsIS6_JRKS6_EEENS_4pairINS_15__hash_iteratorIPNS_11__hash_nodeIS6_PvEEEEbEERKT_DpOT0_, symObjAddr: 0x7500, symBinAddr: 0x10000C0C0, symSize: 0x5A0 }
  - { offsetInCU: 0xEF70, offset: 0x3C311, size: 0x8, addend: 0x0, symName: __ZNSt3__122__hash_key_value_typesINS_12basic_stringIcNS_11char_traitsIcEENS_9allocatorIcEEEEE9__get_keyB7v160006ERKS6_, symObjAddr: 0x7AA0, symBinAddr: 0x10000C660, symSize: 0x10 }
  - { offsetInCU: 0xEF92, offset: 0x3C333, size: 0x8, addend: 0x0, symName: __ZNSt3__112__hash_tableINS_12basic_stringIcNS_11char_traitsIcEENS_9allocatorIcEEEENS_4hashIS6_EENS_8equal_toIS6_EENS4_IS6_EEE21__construct_node_hashIRKS6_JEEENS_10unique_ptrINS_11__hash_nodeIS6_PvEENS_22__hash_node_destructorINS4_ISJ_EEEEEEmOT_DpOT0_, symObjAddr: 0x7AB0, symBinAddr: 0x10000C670, symSize: 0x130 }
  - { offsetInCU: 0xF004, offset: 0x3C3A5, size: 0x8, addend: 0x0, symName: __ZNSt3__112__hash_tableINS_12basic_stringIcNS_11char_traitsIcEENS_9allocatorIcEEEENS_4hashIS6_EENS_8equal_toIS6_EENS4_IS6_EEE15__rehash_uniqueB7v160006Em, symObjAddr: 0x7BE0, symBinAddr: 0x10000C7A0, symSize: 0x30 }
  - { offsetInCU: 0xF037, offset: 0x3C3D8, size: 0x8, addend: 0x0, symName: __ZNSt3__14pairINS_15__hash_iteratorIPNS_11__hash_nodeINS_12basic_stringIcNS_11char_traitsIcEENS_9allocatorIcEEEEPvEEEEbEC1B7v160006ERKSC_RKb, symObjAddr: 0x7C10, symBinAddr: 0x10000C7D0, symSize: 0x30 }
  - { offsetInCU: 0xF07B, offset: 0x3C41C, size: 0x8, addend: 0x0, symName: __ZNSt3__112__hash_tableINS_12basic_stringIcNS_11char_traitsIcEENS_9allocatorIcEEEENS_4hashIS6_EENS_8equal_toIS6_EENS4_IS6_EEE8__rehashILb1EEEvm, symObjAddr: 0x7C40, symBinAddr: 0x10000C800, symSize: 0x230 }
  - { offsetInCU: 0xF0C9, offset: 0x3C46A, size: 0x8, addend: 0x0, symName: __ZNSt3__112__hash_tableINS_12basic_stringIcNS_11char_traitsIcEENS_9allocatorIcEEEENS_4hashIS6_EENS_8equal_toIS6_EENS4_IS6_EEE11__do_rehashILb1EEEvm, symObjAddr: 0x7E70, symBinAddr: 0x10000CA30, symSize: 0x260 }
  - { offsetInCU: 0xF1AA, offset: 0x3C54B, size: 0x8, addend: 0x0, symName: __ZNSt3__14pairINS_15__hash_iteratorIPNS_11__hash_nodeINS_12basic_stringIcNS_11char_traitsIcEENS_9allocatorIcEEEEPvEEEEbEC2B7v160006ERKSC_RKb, symObjAddr: 0x80D0, symBinAddr: 0x10000CC90, symSize: 0x30 }
  - { offsetInCU: 0xF1EE, offset: 0x3C58F, size: 0x8, addend: 0x0, symName: __ZNSt3__14pairINS_21__hash_const_iteratorIPNS_11__hash_nodeINS_12basic_stringIcNS_11char_traitsIcEENS_9allocatorIcEEEEPvEEEEbEC2B7v160006INS_15__hash_iteratorISB_EEbEERKNS0_IT_T0_EE, symObjAddr: 0x8100, symBinAddr: 0x10000CCC0, symSize: 0x40 }
  - { offsetInCU: 0xF236, offset: 0x3C5D7, size: 0x8, addend: 0x0, symName: __ZNSt3__121__hash_const_iteratorIPNS_11__hash_nodeINS_12basic_stringIcNS_11char_traitsIcEENS_9allocatorIcEEEEPvEEEC1B7v160006ERKNS_15__hash_iteratorISA_EE, symObjAddr: 0x8140, symBinAddr: 0x10000CD00, symSize: 0x30 }
  - { offsetInCU: 0xF26D, offset: 0x3C60E, size: 0x8, addend: 0x0, symName: __ZNSt3__121__hash_const_iteratorIPNS_11__hash_nodeINS_12basic_stringIcNS_11char_traitsIcEENS_9allocatorIcEEEEPvEEEC2B7v160006ERKNS_15__hash_iteratorISA_EE, symObjAddr: 0x8170, symBinAddr: 0x10000CD30, symSize: 0x20 }
  - { offsetInCU: 0xF2D1, offset: 0x3C672, size: 0x8, addend: 0x0, symName: __ZNSt3__16vectorIP5StateNS_9allocatorIS2_EEE19__copy_assign_allocB7v160006ERKS5_, symObjAddr: 0xAC20, symBinAddr: 0x10000CD50, symSize: 0x30 }
  - { offsetInCU: 0xF304, offset: 0x3C6A5, size: 0x8, addend: 0x0, symName: __ZNSt3__16vectorIP5StateNS_9allocatorIS2_EEE6assignIPS2_Li0EEEvT_S8_, symObjAddr: 0xAC50, symBinAddr: 0x10000CD80, symSize: 0x160 }
  - { offsetInCU: 0xF3A2, offset: 0x3C743, size: 0x8, addend: 0x0, symName: __ZNSt3__16vectorIP5StateNS_9allocatorIS2_EEE19__copy_assign_allocB7v160006ERKS5_NS_17integral_constantIbLb0EEE, symObjAddr: 0xADB0, symBinAddr: 0x10000CEE0, symSize: 0x10 }
  - { offsetInCU: 0xF3DE, offset: 0x3C77F, size: 0x8, addend: 0x0, symName: __ZNSt3__16vectorIP5StateNS_9allocatorIS2_EEE18__construct_at_endIPS2_Li0EEEvT_S8_m, symObjAddr: 0xAE80, symBinAddr: 0x10000CFB0, symSize: 0xA0 }
  - { offsetInCU: 0xF450, offset: 0x3C7F1, size: 0x8, addend: 0x0, symName: __ZNSt3__16vectorIP5StateNS_9allocatorIS2_EEE17__destruct_at_endB7v160006EPS2_, symObjAddr: 0xAF20, symBinAddr: 0x10000D050, symSize: 0x80 }
  - { offsetInCU: 0xF492, offset: 0x3C833, size: 0x8, addend: 0x0, symName: __ZNSt3__16vectorIP5StateNS_9allocatorIS2_EEE13__vdeallocateEv, symObjAddr: 0xAFA0, symBinAddr: 0x10000D0D0, symSize: 0x80 }
  - { offsetInCU: 0xF4B8, offset: 0x3C859, size: 0x8, addend: 0x0, symName: __ZNSt3__16vectorIP5StateNS_9allocatorIS2_EEE11__vallocateB7v160006Em, symObjAddr: 0xB020, symBinAddr: 0x10000D150, symSize: 0xA0 }
  - { offsetInCU: 0xF51D, offset: 0x3C8BE, size: 0x8, addend: 0x0, symName: __ZNKSt3__114__copy_trivialclB7v160006IP5StateS3_Li0EEENS_4pairIPT_PT0_EES6_S6_S8_, symObjAddr: 0xB2B0, symBinAddr: 0x10000D3E0, symSize: 0x40 }
  - { offsetInCU: 0xF584, offset: 0x3C925, size: 0x8, addend: 0x0, symName: __ZNSt3__14pairIPP5StateS3_EC1B7v160006ERKS3_S6_, symObjAddr: 0xB460, symBinAddr: 0x10000D590, symSize: 0x30 }
  - { offsetInCU: 0xF5C8, offset: 0x3C969, size: 0x8, addend: 0x0, symName: __ZNSt3__14pairIPP5StateS3_EC2B7v160006ERKS3_S6_, symObjAddr: 0xB490, symBinAddr: 0x10000D5C0, symSize: 0x30 }
  - { offsetInCU: 0xF60C, offset: 0x3C9AD, size: 0x8, addend: 0x0, symName: __ZNSt3__118__unwrap_iter_implIPP5StateLb1EE8__unwrapB7v160006ES3_, symObjAddr: 0xB4C0, symBinAddr: 0x10000D5F0, symSize: 0x20 }
  - { offsetInCU: 0xF62E, offset: 0x3C9CF, size: 0x8, addend: 0x0, symName: __ZNSt3__118__unwrap_iter_implIPP5StateLb1EE8__rewrapB7v160006ES3_S3_, symObjAddr: 0xB4E0, symBinAddr: 0x10000D610, symSize: 0x50 }
  - { offsetInCU: 0xF65E, offset: 0x3C9FF, size: 0x8, addend: 0x0, symName: __ZNSt3__129_AllocatorDestroyRangeReverseINS_9allocatorIP5StateEEPS3_EC1B7v160006ERS4_RS5_S8_, symObjAddr: 0xB6A0, symBinAddr: 0x10000D7D0, symSize: 0x40 }
  - { offsetInCU: 0xF6B3, offset: 0x3CA54, size: 0x8, addend: 0x0, symName: __ZNSt3__116allocator_traitsINS_9allocatorIP5StateEEE9constructB7v160006IS3_JRS3_EvEEvRS4_PT_DpOT0_, symObjAddr: 0xB6E0, symBinAddr: 0x10000D810, symSize: 0x30 }
  - { offsetInCU: 0xF709, offset: 0x3CAAA, size: 0x8, addend: 0x0, symName: __ZNSt3__128__exception_guard_exceptionsINS_29_AllocatorDestroyRangeReverseINS_9allocatorIP5StateEEPS4_EEE10__completeB7v160006Ev, symObjAddr: 0xB710, symBinAddr: 0x10000D840, symSize: 0x20 }
  - { offsetInCU: 0xF72D, offset: 0x3CACE, size: 0x8, addend: 0x0, symName: __ZNSt3__128__exception_guard_exceptionsINS_29_AllocatorDestroyRangeReverseINS_9allocatorIP5StateEEPS4_EEED1B7v160006Ev, symObjAddr: 0xB730, symBinAddr: 0x10000D860, symSize: 0x20 }
  - { offsetInCU: 0xF755, offset: 0x3CAF6, size: 0x8, addend: 0x0, symName: __ZNSt3__128__exception_guard_exceptionsINS_29_AllocatorDestroyRangeReverseINS_9allocatorIP5StateEEPS4_EEEC1B7v160006ES7_, symObjAddr: 0xB750, symBinAddr: 0x10000D880, symSize: 0x40 }
  - { offsetInCU: 0xF78B, offset: 0x3CB2C, size: 0x8, addend: 0x0, symName: __ZNSt3__128__exception_guard_exceptionsINS_29_AllocatorDestroyRangeReverseINS_9allocatorIP5StateEEPS4_EEEC2B7v160006ES7_, symObjAddr: 0xB790, symBinAddr: 0x10000D8C0, symSize: 0x30 }
  - { offsetInCU: 0xF7C1, offset: 0x3CB62, size: 0x8, addend: 0x0, symName: __ZNSt3__129_AllocatorDestroyRangeReverseINS_9allocatorIP5StateEEPS3_EC2B7v160006ERS4_RS5_S8_, symObjAddr: 0xB7C0, symBinAddr: 0x10000D8F0, symSize: 0x40 }
  - { offsetInCU: 0xF816, offset: 0x3CBB7, size: 0x8, addend: 0x0, symName: __ZNSt3__19allocatorIP5StateE9constructB7v160006IS2_JRS2_EEEvPT_DpOT0_, symObjAddr: 0xB800, symBinAddr: 0x10000D930, symSize: 0x20 }
  - { offsetInCU: 0xF86A, offset: 0x3CC0B, size: 0x8, addend: 0x0, symName: __ZNSt3__128__exception_guard_exceptionsINS_29_AllocatorDestroyRangeReverseINS_9allocatorIP5StateEEPS4_EEED2B7v160006Ev, symObjAddr: 0xB820, symBinAddr: 0x10000D950, symSize: 0x30 }
  - { offsetInCU: 0xF892, offset: 0x3CC33, size: 0x8, addend: 0x0, symName: __ZNKSt3__129_AllocatorDestroyRangeReverseINS_9allocatorIP5StateEEPS3_EclB7v160006Ev, symObjAddr: 0xB850, symBinAddr: 0x10000D980, symSize: 0x60 }
  - { offsetInCU: 0xF8B6, offset: 0x3CC57, size: 0x8, addend: 0x0, symName: __ZNSt3__16vectorIP5StateNS_9allocatorIS2_EEE27__invalidate_iterators_pastB7v160006EPS2_, symObjAddr: 0xB920, symBinAddr: 0x10000DA50, symSize: 0x10 }
  - { offsetInCU: 0xF8EB, offset: 0x3CC8C, size: 0x8, addend: 0x0, symName: __ZNKSt3__16vectorIP5StateNS_9allocatorIS2_EEE17__annotate_shrinkB7v160006Em, symObjAddr: 0xB930, symBinAddr: 0x10000DA60, symSize: 0xA0 }
  - { offsetInCU: 0xF91E, offset: 0x3CCBF, size: 0x8, addend: 0x0, symName: __ZNSt3__16vectorIP5StateNS_9allocatorIS2_EEE5clearB7v160006Ev, symObjAddr: 0xB9D0, symBinAddr: 0x10000DB00, symSize: 0x50 }
  - { offsetInCU: 0xF956, offset: 0x3CCF7, size: 0x8, addend: 0x0, symName: __ZNSt3__16vectorIP5StateNS_9allocatorIS2_EEEC2ERKS5_, symObjAddr: 0xC400, symBinAddr: 0x10000DB50, symSize: 0x110 }
  - { offsetInCU: 0xF9B5, offset: 0x3CD56, size: 0x8, addend: 0x0, symName: __ZNSt3__116allocator_traitsINS_9allocatorIP5StateEEE37select_on_container_copy_constructionB7v160006IS4_vvEES4_RKS4_, symObjAddr: 0xC510, symBinAddr: 0x10000DC60, symSize: 0x10 }
  - { offsetInCU: 0xF9E8, offset: 0x3CD89, size: 0x8, addend: 0x0, symName: __ZNSt3__117__compressed_pairIPP5StateNS_9allocatorIS2_EEEC1B7v160006IDnS5_EEOT_OT0_, symObjAddr: 0xC520, symBinAddr: 0x10000DC70, symSize: 0x30 }
  - { offsetInCU: 0xFA3E, offset: 0x3CDDF, size: 0x8, addend: 0x0, symName: __ZNSt3__128__exception_guard_exceptionsINS_6vectorIP5StateNS_9allocatorIS3_EEE16__destroy_vectorEE10__completeB7v160006Ev, symObjAddr: 0xC590, symBinAddr: 0x10000DCE0, symSize: 0x20 }
  - { offsetInCU: 0xFA62, offset: 0x3CE03, size: 0x8, addend: 0x0, symName: __ZNSt3__128__exception_guard_exceptionsINS_6vectorIP5StateNS_9allocatorIS3_EEE16__destroy_vectorEED1B7v160006Ev, symObjAddr: 0xC5B0, symBinAddr: 0x10000DD00, symSize: 0x20 }
  - { offsetInCU: 0xFA8A, offset: 0x3CE2B, size: 0x8, addend: 0x0, symName: __ZNSt3__117__compressed_pairIPP5StateNS_9allocatorIS2_EEEC2B7v160006IDnS5_EEOT_OT0_, symObjAddr: 0xC5D0, symBinAddr: 0x10000DD20, symSize: 0x40 }
  - { offsetInCU: 0xFAE0, offset: 0x3CE81, size: 0x8, addend: 0x0, symName: __ZNSt3__122__compressed_pair_elemINS_9allocatorIP5StateEELi1ELb1EEC2B7v160006IS4_vEEOT_, symObjAddr: 0xC610, symBinAddr: 0x10000DD60, symSize: 0x10 }
  - { offsetInCU: 0xFB20, offset: 0x3CEC1, size: 0x8, addend: 0x0, symName: __ZNSt3__128__exception_guard_exceptionsINS_6vectorIP5StateNS_9allocatorIS3_EEE16__destroy_vectorEEC1B7v160006ES7_, symObjAddr: 0xC620, symBinAddr: 0x10000DD70, symSize: 0x30 }
  - { offsetInCU: 0xFB56, offset: 0x3CEF7, size: 0x8, addend: 0x0, symName: __ZNSt3__128__exception_guard_exceptionsINS_6vectorIP5StateNS_9allocatorIS3_EEE16__destroy_vectorEEC2B7v160006ES7_, symObjAddr: 0xC650, symBinAddr: 0x10000DDA0, symSize: 0x20 }
  - { offsetInCU: 0xFB8C, offset: 0x3CF2D, size: 0x8, addend: 0x0, symName: __ZNSt3__128__exception_guard_exceptionsINS_6vectorIP5StateNS_9allocatorIS3_EEE16__destroy_vectorEED2B7v160006Ev, symObjAddr: 0xC670, symBinAddr: 0x10000DDC0, symSize: 0x30 }
  - { offsetInCU: 0xFBB4, offset: 0x3CF55, size: 0x8, addend: 0x0, symName: __ZNSt3__112__hash_tableINS_12basic_stringIcNS_11char_traitsIcEENS_9allocatorIcEEEENS_4hashIS6_EENS_8equal_toIS6_EENS4_IS6_EEE4findIS6_EENS_15__hash_iteratorIPNS_11__hash_nodeIS6_PvEEEERKT_, symObjAddr: 0xC6A0, symBinAddr: 0x10000DDF0, symSize: 0x180 }
  - { offsetInCU: 0xFC3C, offset: 0x3CFDD, size: 0x8, addend: 0x0, symName: __ZNSt3__112__hash_tableINS_12basic_stringIcNS_11char_traitsIcEENS_9allocatorIcEEEENS_4hashIS6_EENS_8equal_toIS6_EENS4_IS6_EEE3endEv, symObjAddr: 0xC820, symBinAddr: 0x10000DF70, symSize: 0x27 }
  - { offsetInCU: 0x55CA, offset: 0x4271B, size: 0x8, addend: 0x0, symName: __ZNSt3__115__debug_db_swapB7v160006INS_6vectorIP5StateNS_9allocatorIS3_EEEEEEvPT_S8_, symObjAddr: 0x13A0, symBinAddr: 0x10000E510, symSize: 0x10 }
  - { offsetInCU: 0x7A18, offset: 0x44B69, size: 0x8, addend: 0x0, symName: __ZN4UserC2ENSt3__112basic_stringIcNS0_11char_traitsIcEENS0_9allocatorIcEEEES6_P12StateManager, symObjAddr: 0x0, symBinAddr: 0x10000DFA0, symSize: 0x260 }
  - { offsetInCU: 0x7A6F, offset: 0x44BC0, size: 0x8, addend: 0x0, symName: __ZNSt3__112basic_stringIcNS_11char_traitsIcEENS_9allocatorIcEEEaSB7v160006EPKc, symObjAddr: 0x2B0, symBinAddr: 0x10000E200, symSize: 0x30 }
  - { offsetInCU: 0x7AA2, offset: 0x44BF3, size: 0x8, addend: 0x0, symName: __ZNSt3__16vectorIP5StateNS_9allocatorIS2_EEEaSB7v160006EOS5_, symObjAddr: 0x2E0, symBinAddr: 0x10000E230, symSize: 0x30 }
  - { offsetInCU: 0x7AD6, offset: 0x44C27, size: 0x8, addend: 0x0, symName: __ZN4UserC1ENSt3__112basic_stringIcNS0_11char_traitsIcEENS0_9allocatorIcEEEES6_P12StateManager, symObjAddr: 0x430, symBinAddr: 0x10000E260, symSize: 0x30 }
  - { offsetInCU: 0x7B2D, offset: 0x44C7E, size: 0x8, addend: 0x0, symName: __ZN4User14viewNextStatesEv, symObjAddr: 0x460, symBinAddr: 0x10000E290, symSize: 0x190 }
  - { offsetInCU: 0x7B72, offset: 0x44CC3, size: 0x8, addend: 0x0, symName: __ZNSt3__16vectorIP5StateNS_9allocatorIS2_EEEixB7v160006Em, symObjAddr: 0x680, symBinAddr: 0x10000E420, symSize: 0x20 }
  - { offsetInCU: 0x7BA7, offset: 0x44CF8, size: 0x8, addend: 0x0, symName: __ZNSt3__16vectorIP5StateNS_9allocatorIS2_EEE13__move_assignERS5_NS_17integral_constantIbLb1EEE, symObjAddr: 0x1230, symBinAddr: 0x10000E440, symSize: 0xA0 }
  - { offsetInCU: 0x7BE8, offset: 0x44D39, size: 0x8, addend: 0x0, symName: __ZNSt3__16vectorIP5StateNS_9allocatorIS2_EEE19__move_assign_allocB7v160006ERS5_, symObjAddr: 0x1350, symBinAddr: 0x10000E4E0, symSize: 0x30 }
  - { offsetInCU: 0x7C1B, offset: 0x44D6C, size: 0x8, addend: 0x0, symName: __ZNSt3__16vectorIP5StateNS_9allocatorIS2_EEE19__move_assign_allocB7v160006ERS5_NS_17integral_constantIbLb1EEE, symObjAddr: 0x14C0, symBinAddr: 0x10000E520, symSize: 0x30 }
  - { offsetInCU: 0x73B1, offset: 0x4C165, size: 0x8, addend: 0x0, symName: _main, symObjAddr: 0x0, symBinAddr: 0x10000E550, symSize: 0x3A0 }
...
